Archive member included to satisfy reference by file (symbol)

/home/jalcim/gcc_toolchain/gcc-arm-none-eabi-7-2018-q2-update/bin/../lib/gcc/arm-none-eabi/7.3.1/../../../../arm-none-eabi/lib/thumb/v7e-m/fpv4-sp/softfp/libc_nano.a(lib_a-assert.o)
                              build_mx8qx_b0/drivers/gpio/fsl_gpio.o (__assert_func)
/home/jalcim/gcc_toolchain/gcc-arm-none-eabi-7-2018-q2-update/bin/../lib/gcc/arm-none-eabi/7.3.1/../../../../arm-none-eabi/lib/thumb/v7e-m/fpv4-sp/softfp/libc_nano.a(lib_a-errno.o)
                              build_mx8qx_b0/main/monitor.o (__errno)
/home/jalcim/gcc_toolchain/gcc-arm-none-eabi-7-2018-q2-update/bin/../lib/gcc/arm-none-eabi/7.3.1/../../../../arm-none-eabi/lib/thumb/v7e-m/fpv4-sp/softfp/libc_nano.a(lib_a-exit.o)
                              build_mx8qx_b0/main/main_common.o (exit)
/home/jalcim/gcc_toolchain/gcc-arm-none-eabi-7-2018-q2-update/bin/../lib/gcc/arm-none-eabi/7.3.1/../../../../arm-none-eabi/lib/thumb/v7e-m/fpv4-sp/softfp/libc_nano.a(lib_a-fgets.o)
                              build_mx8qx_b0/main/monitor.o (fgets)
/home/jalcim/gcc_toolchain/gcc-arm-none-eabi-7-2018-q2-update/bin/../lib/gcc/arm-none-eabi/7.3.1/../../../../arm-none-eabi/lib/thumb/v7e-m/fpv4-sp/softfp/libc_nano.a(lib_a-findfp.o)
                              /home/jalcim/gcc_toolchain/gcc-arm-none-eabi-7-2018-q2-update/bin/../lib/gcc/arm-none-eabi/7.3.1/../../../../arm-none-eabi/lib/thumb/v7e-m/fpv4-sp/softfp/libc_nano.a(lib_a-fgets.o) (__sinit)
/home/jalcim/gcc_toolchain/gcc-arm-none-eabi-7-2018-q2-update/bin/../lib/gcc/arm-none-eabi/7.3.1/../../../../arm-none-eabi/lib/thumb/v7e-m/fpv4-sp/softfp/libc_nano.a(lib_a-fprintf.o)
                              /home/jalcim/gcc_toolchain/gcc-arm-none-eabi-7-2018-q2-update/bin/../lib/gcc/arm-none-eabi/7.3.1/../../../../arm-none-eabi/lib/thumb/v7e-m/fpv4-sp/softfp/libc_nano.a(lib_a-assert.o) (fiprintf)
/home/jalcim/gcc_toolchain/gcc-arm-none-eabi-7-2018-q2-update/bin/../lib/gcc/arm-none-eabi/7.3.1/../../../../arm-none-eabi/lib/thumb/v7e-m/fpv4-sp/softfp/libc_nano.a(lib_a-fwalk.o)
                              /home/jalcim/gcc_toolchain/gcc-arm-none-eabi-7-2018-q2-update/bin/../lib/gcc/arm-none-eabi/7.3.1/../../../../arm-none-eabi/lib/thumb/v7e-m/fpv4-sp/softfp/libc_nano.a(lib_a-findfp.o) (_fwalk)
/home/jalcim/gcc_toolchain/gcc-arm-none-eabi-7-2018-q2-update/bin/../lib/gcc/arm-none-eabi/7.3.1/../../../../arm-none-eabi/lib/thumb/v7e-m/fpv4-sp/softfp/libc_nano.a(lib_a-impure.o)
                              /home/jalcim/gcc_toolchain/gcc-arm-none-eabi-7-2018-q2-update/bin/../lib/gcc/arm-none-eabi/7.3.1/../../../../arm-none-eabi/lib/thumb/v7e-m/fpv4-sp/softfp/libc_nano.a(lib_a-exit.o) (_global_impure_ptr)
/home/jalcim/gcc_toolchain/gcc-arm-none-eabi-7-2018-q2-update/bin/../lib/gcc/arm-none-eabi/7.3.1/../../../../arm-none-eabi/lib/thumb/v7e-m/fpv4-sp/softfp/libc_nano.a(lib_a-init.o)
                              build_mx8qx_b0/board/board.o (__libc_init_array)
/home/jalcim/gcc_toolchain/gcc-arm-none-eabi-7-2018-q2-update/bin/../lib/gcc/arm-none-eabi/7.3.1/../../../../arm-none-eabi/lib/thumb/v7e-m/fpv4-sp/softfp/libc_nano.a(lib_a-memchr.o)
                              /home/jalcim/gcc_toolchain/gcc-arm-none-eabi-7-2018-q2-update/bin/../lib/gcc/arm-none-eabi/7.3.1/../../../../arm-none-eabi/lib/thumb/v7e-m/fpv4-sp/softfp/libc_nano.a(lib_a-fgets.o) (memchr)
/home/jalcim/gcc_toolchain/gcc-arm-none-eabi-7-2018-q2-update/bin/../lib/gcc/arm-none-eabi/7.3.1/../../../../arm-none-eabi/lib/thumb/v7e-m/fpv4-sp/softfp/libc_nano.a(lib_a-memcpy-stub.o)
                              build_mx8qx_b0/main/boot.o (memcpy)
/home/jalcim/gcc_toolchain/gcc-arm-none-eabi-7-2018-q2-update/bin/../lib/gcc/arm-none-eabi/7.3.1/../../../../arm-none-eabi/lib/thumb/v7e-m/fpv4-sp/softfp/libc_nano.a(lib_a-memset.o)
                              build_mx8qx_b0/drivers/xrdc2/fsl_xrdc2.o (memset)
/home/jalcim/gcc_toolchain/gcc-arm-none-eabi-7-2018-q2-update/bin/../lib/gcc/arm-none-eabi/7.3.1/../../../../arm-none-eabi/lib/thumb/v7e-m/fpv4-sp/softfp/libc_nano.a(lib_a-nano-mallocr.o)
                              /home/jalcim/gcc_toolchain/gcc-arm-none-eabi-7-2018-q2-update/bin/../lib/gcc/arm-none-eabi/7.3.1/../../../../arm-none-eabi/lib/thumb/v7e-m/fpv4-sp/softfp/libc_nano.a(lib_a-findfp.o) (_malloc_r)
/home/jalcim/gcc_toolchain/gcc-arm-none-eabi-7-2018-q2-update/bin/../lib/gcc/arm-none-eabi/7.3.1/../../../../arm-none-eabi/lib/thumb/v7e-m/fpv4-sp/softfp/libc_nano.a(lib_a-nano-vfprintf.o)
                              /home/jalcim/gcc_toolchain/gcc-arm-none-eabi-7-2018-q2-update/bin/../lib/gcc/arm-none-eabi/7.3.1/../../../../arm-none-eabi/lib/thumb/v7e-m/fpv4-sp/softfp/libc_nano.a(lib_a-fprintf.o) (_vfprintf_r)
/home/jalcim/gcc_toolchain/gcc-arm-none-eabi-7-2018-q2-update/bin/../lib/gcc/arm-none-eabi/7.3.1/../../../../arm-none-eabi/lib/thumb/v7e-m/fpv4-sp/softfp/libc_nano.a(lib_a-nano-vfprintf_i.o)
                              /home/jalcim/gcc_toolchain/gcc-arm-none-eabi-7-2018-q2-update/bin/../lib/gcc/arm-none-eabi/7.3.1/../../../../arm-none-eabi/lib/thumb/v7e-m/fpv4-sp/softfp/libc_nano.a(lib_a-nano-vfprintf.o) (_printf_i)
/home/jalcim/gcc_toolchain/gcc-arm-none-eabi-7-2018-q2-update/bin/../lib/gcc/arm-none-eabi/7.3.1/../../../../arm-none-eabi/lib/thumb/v7e-m/fpv4-sp/softfp/libc_nano.a(lib_a-reent.o)
                              build_mx8qx_b0/utilities/newlib_stubs.o (errno)
/home/jalcim/gcc_toolchain/gcc-arm-none-eabi-7-2018-q2-update/bin/../lib/gcc/arm-none-eabi/7.3.1/../../../../arm-none-eabi/lib/thumb/v7e-m/fpv4-sp/softfp/libc_nano.a(lib_a-refill.o)
                              /home/jalcim/gcc_toolchain/gcc-arm-none-eabi-7-2018-q2-update/bin/../lib/gcc/arm-none-eabi/7.3.1/../../../../arm-none-eabi/lib/thumb/v7e-m/fpv4-sp/softfp/libc_nano.a(lib_a-fgets.o) (__srefill_r)
/home/jalcim/gcc_toolchain/gcc-arm-none-eabi-7-2018-q2-update/bin/../lib/gcc/arm-none-eabi/7.3.1/../../../../arm-none-eabi/lib/thumb/v7e-m/fpv4-sp/softfp/libc_nano.a(lib_a-sbrkr.o)
                              /home/jalcim/gcc_toolchain/gcc-arm-none-eabi-7-2018-q2-update/bin/../lib/gcc/arm-none-eabi/7.3.1/../../../../arm-none-eabi/lib/thumb/v7e-m/fpv4-sp/softfp/libc_nano.a(lib_a-nano-mallocr.o) (_sbrk_r)
/home/jalcim/gcc_toolchain/gcc-arm-none-eabi-7-2018-q2-update/bin/../lib/gcc/arm-none-eabi/7.3.1/../../../../arm-none-eabi/lib/thumb/v7e-m/fpv4-sp/softfp/libc_nano.a(lib_a-setvbuf.o)
                              build_mx8qx_b0/main/main_common.o (setvbuf)
/home/jalcim/gcc_toolchain/gcc-arm-none-eabi-7-2018-q2-update/bin/../lib/gcc/arm-none-eabi/7.3.1/../../../../arm-none-eabi/lib/thumb/v7e-m/fpv4-sp/softfp/libc_nano.a(lib_a-stdio.o)
                              /home/jalcim/gcc_toolchain/gcc-arm-none-eabi-7-2018-q2-update/bin/../lib/gcc/arm-none-eabi/7.3.1/../../../../arm-none-eabi/lib/thumb/v7e-m/fpv4-sp/softfp/libc_nano.a(lib_a-findfp.o) (__sread)
/home/jalcim/gcc_toolchain/gcc-arm-none-eabi-7-2018-q2-update/bin/../lib/gcc/arm-none-eabi/7.3.1/../../../../arm-none-eabi/lib/thumb/v7e-m/fpv4-sp/softfp/libc_nano.a(lib_a-strcasecmp.o)
                              build_mx8qx_b0/main/monitor.o (strcasecmp)
/home/jalcim/gcc_toolchain/gcc-arm-none-eabi-7-2018-q2-update/bin/../lib/gcc/arm-none-eabi/7.3.1/../../../../arm-none-eabi/lib/thumb/v7e-m/fpv4-sp/softfp/libc_nano.a(lib_a-strlen.o)
                              build_mx8qx_b0/main/monitor.o (strlen)
/home/jalcim/gcc_toolchain/gcc-arm-none-eabi-7-2018-q2-update/bin/../lib/gcc/arm-none-eabi/7.3.1/../../../../arm-none-eabi/lib/thumb/v7e-m/fpv4-sp/softfp/libc_nano.a(lib_a-strncasecmp.o)
                              build_mx8qx_b0/main/monitor.o (strncasecmp)
/home/jalcim/gcc_toolchain/gcc-arm-none-eabi-7-2018-q2-update/bin/../lib/gcc/arm-none-eabi/7.3.1/../../../../arm-none-eabi/lib/thumb/v7e-m/fpv4-sp/softfp/libc_nano.a(lib_a-strtoul.o)
                              build_mx8qx_b0/main/monitor.o (strtoul)
/home/jalcim/gcc_toolchain/gcc-arm-none-eabi-7-2018-q2-update/bin/../lib/gcc/arm-none-eabi/7.3.1/../../../../arm-none-eabi/lib/thumb/v7e-m/fpv4-sp/softfp/libc_nano.a(lib_a-strtoull.o)
                              build_mx8qx_b0/main/monitor.o (strtoull)
/home/jalcim/gcc_toolchain/gcc-arm-none-eabi-7-2018-q2-update/bin/../lib/gcc/arm-none-eabi/7.3.1/../../../../arm-none-eabi/lib/thumb/v7e-m/fpv4-sp/softfp/libc_nano.a(lib_a-wbuf.o)
                              /home/jalcim/gcc_toolchain/gcc-arm-none-eabi-7-2018-q2-update/bin/../lib/gcc/arm-none-eabi/7.3.1/../../../../arm-none-eabi/lib/thumb/v7e-m/fpv4-sp/softfp/libc_nano.a(lib_a-nano-vfprintf.o) (__swbuf_r)
/home/jalcim/gcc_toolchain/gcc-arm-none-eabi-7-2018-q2-update/bin/../lib/gcc/arm-none-eabi/7.3.1/../../../../arm-none-eabi/lib/thumb/v7e-m/fpv4-sp/softfp/libc_nano.a(lib_a-writer.o)
                              /home/jalcim/gcc_toolchain/gcc-arm-none-eabi-7-2018-q2-update/bin/../lib/gcc/arm-none-eabi/7.3.1/../../../../arm-none-eabi/lib/thumb/v7e-m/fpv4-sp/softfp/libc_nano.a(lib_a-stdio.o) (_write_r)
/home/jalcim/gcc_toolchain/gcc-arm-none-eabi-7-2018-q2-update/bin/../lib/gcc/arm-none-eabi/7.3.1/../../../../arm-none-eabi/lib/thumb/v7e-m/fpv4-sp/softfp/libc_nano.a(lib_a-wsetup.o)
                              /home/jalcim/gcc_toolchain/gcc-arm-none-eabi-7-2018-q2-update/bin/../lib/gcc/arm-none-eabi/7.3.1/../../../../arm-none-eabi/lib/thumb/v7e-m/fpv4-sp/softfp/libc_nano.a(lib_a-nano-vfprintf.o) (__swsetup_r)
/home/jalcim/gcc_toolchain/gcc-arm-none-eabi-7-2018-q2-update/bin/../lib/gcc/arm-none-eabi/7.3.1/../../../../arm-none-eabi/lib/thumb/v7e-m/fpv4-sp/softfp/libc_nano.a(lib_a-abort.o)
                              /home/jalcim/gcc_toolchain/gcc-arm-none-eabi-7-2018-q2-update/bin/../lib/gcc/arm-none-eabi/7.3.1/../../../../arm-none-eabi/lib/thumb/v7e-m/fpv4-sp/softfp/libc_nano.a(lib_a-assert.o) (abort)
/home/jalcim/gcc_toolchain/gcc-arm-none-eabi-7-2018-q2-update/bin/../lib/gcc/arm-none-eabi/7.3.1/../../../../arm-none-eabi/lib/thumb/v7e-m/fpv4-sp/softfp/libc_nano.a(lib_a-closer.o)
                              /home/jalcim/gcc_toolchain/gcc-arm-none-eabi-7-2018-q2-update/bin/../lib/gcc/arm-none-eabi/7.3.1/../../../../arm-none-eabi/lib/thumb/v7e-m/fpv4-sp/softfp/libc_nano.a(lib_a-stdio.o) (_close_r)
/home/jalcim/gcc_toolchain/gcc-arm-none-eabi-7-2018-q2-update/bin/../lib/gcc/arm-none-eabi/7.3.1/../../../../arm-none-eabi/lib/thumb/v7e-m/fpv4-sp/softfp/libc_nano.a(lib_a-fflush.o)
                              /home/jalcim/gcc_toolchain/gcc-arm-none-eabi-7-2018-q2-update/bin/../lib/gcc/arm-none-eabi/7.3.1/../../../../arm-none-eabi/lib/thumb/v7e-m/fpv4-sp/softfp/libc_nano.a(lib_a-refill.o) (__sflush_r)
/home/jalcim/gcc_toolchain/gcc-arm-none-eabi-7-2018-q2-update/bin/../lib/gcc/arm-none-eabi/7.3.1/../../../../arm-none-eabi/lib/thumb/v7e-m/fpv4-sp/softfp/libc_nano.a(lib_a-fvwrite.o)
                              /home/jalcim/gcc_toolchain/gcc-arm-none-eabi-7-2018-q2-update/bin/../lib/gcc/arm-none-eabi/7.3.1/../../../../arm-none-eabi/lib/thumb/v7e-m/fpv4-sp/softfp/libc_nano.a(lib_a-nano-vfprintf.o) (__sfvwrite_r)
/home/jalcim/gcc_toolchain/gcc-arm-none-eabi-7-2018-q2-update/bin/../lib/gcc/arm-none-eabi/7.3.1/../../../../arm-none-eabi/lib/thumb/v7e-m/fpv4-sp/softfp/libc_nano.a(lib_a-locale.o)
                              /home/jalcim/gcc_toolchain/gcc-arm-none-eabi-7-2018-q2-update/bin/../lib/gcc/arm-none-eabi/7.3.1/../../../../arm-none-eabi/lib/thumb/v7e-m/fpv4-sp/softfp/libc_nano.a(lib_a-strtoul.o) (__locale_ctype_ptr_l)
/home/jalcim/gcc_toolchain/gcc-arm-none-eabi-7-2018-q2-update/bin/../lib/gcc/arm-none-eabi/7.3.1/../../../../arm-none-eabi/lib/thumb/v7e-m/fpv4-sp/softfp/libc_nano.a(lib_a-lseekr.o)
                              /home/jalcim/gcc_toolchain/gcc-arm-none-eabi-7-2018-q2-update/bin/../lib/gcc/arm-none-eabi/7.3.1/../../../../arm-none-eabi/lib/thumb/v7e-m/fpv4-sp/softfp/libc_nano.a(lib_a-stdio.o) (_lseek_r)
/home/jalcim/gcc_toolchain/gcc-arm-none-eabi-7-2018-q2-update/bin/../lib/gcc/arm-none-eabi/7.3.1/../../../../arm-none-eabi/lib/thumb/v7e-m/fpv4-sp/softfp/libc_nano.a(lib_a-makebuf.o)
                              /home/jalcim/gcc_toolchain/gcc-arm-none-eabi-7-2018-q2-update/bin/../lib/gcc/arm-none-eabi/7.3.1/../../../../arm-none-eabi/lib/thumb/v7e-m/fpv4-sp/softfp/libc_nano.a(lib_a-setvbuf.o) (__swhatbuf_r)
/home/jalcim/gcc_toolchain/gcc-arm-none-eabi-7-2018-q2-update/bin/../lib/gcc/arm-none-eabi/7.3.1/../../../../arm-none-eabi/lib/thumb/v7e-m/fpv4-sp/softfp/libc_nano.a(lib_a-malloc.o)
                              /home/jalcim/gcc_toolchain/gcc-arm-none-eabi-7-2018-q2-update/bin/../lib/gcc/arm-none-eabi/7.3.1/../../../../arm-none-eabi/lib/thumb/v7e-m/fpv4-sp/softfp/libc_nano.a(lib_a-setvbuf.o) (malloc)
/home/jalcim/gcc_toolchain/gcc-arm-none-eabi-7-2018-q2-update/bin/../lib/gcc/arm-none-eabi/7.3.1/../../../../arm-none-eabi/lib/thumb/v7e-m/fpv4-sp/softfp/libc_nano.a(lib_a-mbtowc_r.o)
                              /home/jalcim/gcc_toolchain/gcc-arm-none-eabi-7-2018-q2-update/bin/../lib/gcc/arm-none-eabi/7.3.1/../../../../arm-none-eabi/lib/thumb/v7e-m/fpv4-sp/softfp/libc_nano.a(lib_a-locale.o) (__ascii_mbtowc)
/home/jalcim/gcc_toolchain/gcc-arm-none-eabi-7-2018-q2-update/bin/../lib/gcc/arm-none-eabi/7.3.1/../../../../arm-none-eabi/lib/thumb/v7e-m/fpv4-sp/softfp/libc_nano.a(lib_a-memmove.o)
                              /home/jalcim/gcc_toolchain/gcc-arm-none-eabi-7-2018-q2-update/bin/../lib/gcc/arm-none-eabi/7.3.1/../../../../arm-none-eabi/lib/thumb/v7e-m/fpv4-sp/softfp/libc_nano.a(lib_a-fvwrite.o) (memmove)
/home/jalcim/gcc_toolchain/gcc-arm-none-eabi-7-2018-q2-update/bin/../lib/gcc/arm-none-eabi/7.3.1/../../../../arm-none-eabi/lib/thumb/v7e-m/fpv4-sp/softfp/libc_nano.a(lib_a-mlock.o)
                              /home/jalcim/gcc_toolchain/gcc-arm-none-eabi-7-2018-q2-update/bin/../lib/gcc/arm-none-eabi/7.3.1/../../../../arm-none-eabi/lib/thumb/v7e-m/fpv4-sp/softfp/libc_nano.a(lib_a-nano-mallocr.o) (__malloc_lock)
/home/jalcim/gcc_toolchain/gcc-arm-none-eabi-7-2018-q2-update/bin/../lib/gcc/arm-none-eabi/7.3.1/../../../../arm-none-eabi/lib/thumb/v7e-m/fpv4-sp/softfp/libc_nano.a(lib_a-nano-freer.o)
                              /home/jalcim/gcc_toolchain/gcc-arm-none-eabi-7-2018-q2-update/bin/../lib/gcc/arm-none-eabi/7.3.1/../../../../arm-none-eabi/lib/thumb/v7e-m/fpv4-sp/softfp/libc_nano.a(lib_a-reent.o) (_free_r)
/home/jalcim/gcc_toolchain/gcc-arm-none-eabi-7-2018-q2-update/bin/../lib/gcc/arm-none-eabi/7.3.1/../../../../arm-none-eabi/lib/thumb/v7e-m/fpv4-sp/softfp/libc_nano.a(lib_a-nano-reallocr.o)
                              /home/jalcim/gcc_toolchain/gcc-arm-none-eabi-7-2018-q2-update/bin/../lib/gcc/arm-none-eabi/7.3.1/../../../../arm-none-eabi/lib/thumb/v7e-m/fpv4-sp/softfp/libc_nano.a(lib_a-fvwrite.o) (_realloc_r)
/home/jalcim/gcc_toolchain/gcc-arm-none-eabi-7-2018-q2-update/bin/../lib/gcc/arm-none-eabi/7.3.1/../../../../arm-none-eabi/lib/thumb/v7e-m/fpv4-sp/softfp/libc_nano.a(lib_a-readr.o)
                              /home/jalcim/gcc_toolchain/gcc-arm-none-eabi-7-2018-q2-update/bin/../lib/gcc/arm-none-eabi/7.3.1/../../../../arm-none-eabi/lib/thumb/v7e-m/fpv4-sp/softfp/libc_nano.a(lib_a-stdio.o) (_read_r)
/home/jalcim/gcc_toolchain/gcc-arm-none-eabi-7-2018-q2-update/bin/../lib/gcc/arm-none-eabi/7.3.1/../../../../arm-none-eabi/lib/thumb/v7e-m/fpv4-sp/softfp/libc_nano.a(lib_a-signal.o)
                              /home/jalcim/gcc_toolchain/gcc-arm-none-eabi-7-2018-q2-update/bin/../lib/gcc/arm-none-eabi/7.3.1/../../../../arm-none-eabi/lib/thumb/v7e-m/fpv4-sp/softfp/libc_nano.a(lib_a-abort.o) (raise)
/home/jalcim/gcc_toolchain/gcc-arm-none-eabi-7-2018-q2-update/bin/../lib/gcc/arm-none-eabi/7.3.1/../../../../arm-none-eabi/lib/thumb/v7e-m/fpv4-sp/softfp/libc_nano.a(lib_a-signalr.o)
                              /home/jalcim/gcc_toolchain/gcc-arm-none-eabi-7-2018-q2-update/bin/../lib/gcc/arm-none-eabi/7.3.1/../../../../arm-none-eabi/lib/thumb/v7e-m/fpv4-sp/softfp/libc_nano.a(lib_a-signal.o) (_kill_r)
/home/jalcim/gcc_toolchain/gcc-arm-none-eabi-7-2018-q2-update/bin/../lib/gcc/arm-none-eabi/7.3.1/../../../../arm-none-eabi/lib/thumb/v7e-m/fpv4-sp/softfp/libc_nano.a(lib_a-strcmp.o)
                              /home/jalcim/gcc_toolchain/gcc-arm-none-eabi-7-2018-q2-update/bin/../lib/gcc/arm-none-eabi/7.3.1/../../../../arm-none-eabi/lib/thumb/v7e-m/fpv4-sp/softfp/libc_nano.a(lib_a-locale.o) (strcmp)
/home/jalcim/gcc_toolchain/gcc-arm-none-eabi-7-2018-q2-update/bin/../lib/gcc/arm-none-eabi/7.3.1/../../../../arm-none-eabi/lib/thumb/v7e-m/fpv4-sp/softfp/libc_nano.a(lib_a-wctomb_r.o)
                              /home/jalcim/gcc_toolchain/gcc-arm-none-eabi-7-2018-q2-update/bin/../lib/gcc/arm-none-eabi/7.3.1/../../../../arm-none-eabi/lib/thumb/v7e-m/fpv4-sp/softfp/libc_nano.a(lib_a-locale.o) (__ascii_wctomb)
/home/jalcim/gcc_toolchain/gcc-arm-none-eabi-7-2018-q2-update/bin/../lib/gcc/arm-none-eabi/7.3.1/../../../../arm-none-eabi/lib/thumb/v7e-m/fpv4-sp/softfp/libc_nano.a(lib_a-ctype_.o)
                              /home/jalcim/gcc_toolchain/gcc-arm-none-eabi-7-2018-q2-update/bin/../lib/gcc/arm-none-eabi/7.3.1/../../../../arm-none-eabi/lib/thumb/v7e-m/fpv4-sp/softfp/libc_nano.a(lib_a-locale.o) (_ctype_)
/home/jalcim/gcc_toolchain/gcc-arm-none-eabi-7-2018-q2-update/bin/../lib/gcc/arm-none-eabi/7.3.1/../../../../arm-none-eabi/lib/thumb/v7e-m/fpv4-sp/softfp/libc_nano.a(lib_a-fstatr.o)
                              /home/jalcim/gcc_toolchain/gcc-arm-none-eabi-7-2018-q2-update/bin/../lib/gcc/arm-none-eabi/7.3.1/../../../../arm-none-eabi/lib/thumb/v7e-m/fpv4-sp/softfp/libc_nano.a(lib_a-makebuf.o) (_fstat_r)
/home/jalcim/gcc_toolchain/gcc-arm-none-eabi-7-2018-q2-update/bin/../lib/gcc/arm-none-eabi/7.3.1/../../../../arm-none-eabi/lib/thumb/v7e-m/fpv4-sp/softfp/libc_nano.a(lib_a-isattyr.o)
                              /home/jalcim/gcc_toolchain/gcc-arm-none-eabi-7-2018-q2-update/bin/../lib/gcc/arm-none-eabi/7.3.1/../../../../arm-none-eabi/lib/thumb/v7e-m/fpv4-sp/softfp/libc_nano.a(lib_a-makebuf.o) (_isatty_r)
/home/jalcim/gcc_toolchain/gcc-arm-none-eabi-7-2018-q2-update/bin/../lib/gcc/arm-none-eabi/7.3.1/../../../../arm-none-eabi/lib/thumb/v7e-m/fpv4-sp/softfp/libc_nano.a(lib_a-nano-msizer.o)
                              /home/jalcim/gcc_toolchain/gcc-arm-none-eabi-7-2018-q2-update/bin/../lib/gcc/arm-none-eabi/7.3.1/../../../../arm-none-eabi/lib/thumb/v7e-m/fpv4-sp/softfp/libc_nano.a(lib_a-nano-reallocr.o) (_malloc_usable_size_r)
/home/jalcim/gcc_toolchain/gcc-arm-none-eabi-7-2018-q2-update/bin/../lib/gcc/arm-none-eabi/7.3.1/thumb/v7e-m/fpv4-sp/softfp/libgcc.a(_lshrdi3.o)
                              build_mx8qx_b0/drivers/dsc/fsl_dsc_ai.o (__aeabi_llsr)
/home/jalcim/gcc_toolchain/gcc-arm-none-eabi-7-2018-q2-update/bin/../lib/gcc/arm-none-eabi/7.3.1/thumb/v7e-m/fpv4-sp/softfp/libgcc.a(_ashldi3.o)
                              build_mx8qx_b0/soc/common/soc_common.o (__aeabi_llsl)
/home/jalcim/gcc_toolchain/gcc-arm-none-eabi-7-2018-q2-update/bin/../lib/gcc/arm-none-eabi/7.3.1/thumb/v7e-m/fpv4-sp/softfp/libgcc.a(_aeabi_uldivmod.o)
                              build_mx8qx_b0/drivers/dsc/fsl_dsc_ai.o (__aeabi_uldivmod)
/home/jalcim/gcc_toolchain/gcc-arm-none-eabi-7-2018-q2-update/bin/../lib/gcc/arm-none-eabi/7.3.1/thumb/v7e-m/fpv4-sp/softfp/libgcc.a(_udivmoddi4.o)
                              /home/jalcim/gcc_toolchain/gcc-arm-none-eabi-7-2018-q2-update/bin/../lib/gcc/arm-none-eabi/7.3.1/thumb/v7e-m/fpv4-sp/softfp/libgcc.a(_aeabi_uldivmod.o) (__udivmoddi4)
/home/jalcim/gcc_toolchain/gcc-arm-none-eabi-7-2018-q2-update/bin/../lib/gcc/arm-none-eabi/7.3.1/thumb/v7e-m/fpv4-sp/softfp/libgcc.a(_dvmd_tls.o)
                              /home/jalcim/gcc_toolchain/gcc-arm-none-eabi-7-2018-q2-update/bin/../lib/gcc/arm-none-eabi/7.3.1/thumb/v7e-m/fpv4-sp/softfp/libgcc.a(_aeabi_uldivmod.o) (__aeabi_ldiv0)

Allocating common symbols
Common symbol       size              file

errno               0x4               /home/jalcim/gcc_toolchain/gcc-arm-none-eabi-7-2018-q2-update/bin/../lib/gcc/arm-none-eabi/7.3.1/../../../../arm-none-eabi/lib/thumb/v7e-m/fpv4-sp/softfp/libc_nano.a(lib_a-reent.o)

Discarded input sections

 .text          0x0000000000000000        0x0 build_mx8qx_b0/devices/startup.o
 .data          0x0000000000000000        0x0 build_mx8qx_b0/devices/startup.o
 .bss           0x0000000000000000        0x0 build_mx8qx_b0/devices/startup.o
 .data          0x0000000000000000        0x0 build_mx8qx_b0/devices/memops.o
 .bss           0x0000000000000000        0x0 build_mx8qx_b0/devices/memops.o
 .text          0x0000000000000000        0x0 build_mx8qx_b0/devices/MX8QX/system_MX8QX.o
 .data          0x0000000000000000        0x0 build_mx8qx_b0/devices/MX8QX/system_MX8QX.o
 .bss           0x0000000000000000        0x0 build_mx8qx_b0/devices/MX8QX/system_MX8QX.o
 .text.SystemDebugWaitAttach
                0x0000000000000000       0x20 build_mx8qx_b0/devices/MX8QX/system_MX8QX.o
 .text          0x0000000000000000        0x0 build_mx8qx_b0/devices/MX8QX/handlers_MX8QX.o
 .data          0x0000000000000000        0x0 build_mx8qx_b0/devices/MX8QX/handlers_MX8QX.o
 .bss           0x0000000000000000        0x0 build_mx8qx_b0/devices/MX8QX/handlers_MX8QX.o
 .data          0x0000000000000000        0x0 build_mx8qx_b0/devices/MX8QX/gcc/startup_MX8QX.o
 .bss           0x0000000000000000        0x0 build_mx8qx_b0/devices/MX8QX/gcc/startup_MX8QX.o
 .rom           0x0000000000000000       0x58 build_mx8qx_b0/devices/MX8QX/gcc/startup_MX8QX.o
 .text          0x0000000000000000        0x0 build_mx8qx_b0/main/main.o
 .data          0x0000000000000000        0x0 build_mx8qx_b0/main/main.o
 .bss           0x0000000000000000        0x0 build_mx8qx_b0/main/main.o
 .text          0x0000000000000000        0x0 build_mx8qx_b0/main/main_common.o
 .data          0x0000000000000000        0x0 build_mx8qx_b0/main/main_common.o
 .bss           0x0000000000000000        0x0 build_mx8qx_b0/main/main_common.o
 .text          0x0000000000000000        0x0 build_mx8qx_b0/main/boot.o
 .data          0x0000000000000000        0x0 build_mx8qx_b0/main/boot.o
 .bss           0x0000000000000000        0x0 build_mx8qx_b0/main/boot.o
 .text.boot_get_boot_sw_info
                0x0000000000000000       0x24 build_mx8qx_b0/main/boot.o
 .text.boot_pass_over
                0x0000000000000000       0x58 build_mx8qx_b0/main/boot.o
 .text          0x0000000000000000        0x0 build_mx8qx_b0/main/debug.o
 .data          0x0000000000000000        0x0 build_mx8qx_b0/main/debug.o
 .bss           0x0000000000000000        0x0 build_mx8qx_b0/main/debug.o
 .text          0x0000000000000000        0x0 build_mx8qx_b0/main/rpc.o
 .data          0x0000000000000000        0x0 build_mx8qx_b0/main/rpc.o
 .bss           0x0000000000000000        0x0 build_mx8qx_b0/main/rpc.o
 .text          0x0000000000000000        0x0 build_mx8qx_b0/main/ipc_srv.o
 .data          0x0000000000000000        0x0 build_mx8qx_b0/main/ipc_srv.o
 .bss           0x0000000000000000        0x0 build_mx8qx_b0/main/ipc_srv.o
 .text          0x0000000000000000        0x0 build_mx8qx_b0/main/ipc.o
 .data          0x0000000000000000        0x0 build_mx8qx_b0/main/ipc.o
 .bss           0x0000000000000000        0x0 build_mx8qx_b0/main/ipc.o
 .text.sc_ipc_open
                0x0000000000000000       0x30 build_mx8qx_b0/main/ipc.o
 .text.sc_ipc_close
                0x0000000000000000       0x16 build_mx8qx_b0/main/ipc.o
 .text.sc_ipc_read
                0x0000000000000000       0x3e build_mx8qx_b0/main/ipc.o
 .text.sc_ipc_write
                0x0000000000000000       0x36 build_mx8qx_b0/main/ipc.o
 .text.sc_call_rpc
                0x0000000000000000       0x1c build_mx8qx_b0/main/ipc.o
 .debug_info    0x0000000000000000     0x24c2 build_mx8qx_b0/main/ipc.o
 .debug_abbrev  0x0000000000000000      0x398 build_mx8qx_b0/main/ipc.o
 .debug_loc     0x0000000000000000      0x310 build_mx8qx_b0/main/ipc.o
 .debug_aranges
                0x0000000000000000       0x40 build_mx8qx_b0/main/ipc.o
 .debug_ranges  0x0000000000000000       0x30 build_mx8qx_b0/main/ipc.o
 .debug_line    0x0000000000000000      0x861 build_mx8qx_b0/main/ipc.o
 .debug_str     0x0000000000000000     0x1752 build_mx8qx_b0/main/ipc.o
 .comment       0x0000000000000000       0x80 build_mx8qx_b0/main/ipc.o
 .debug_frame   0x0000000000000000       0x90 build_mx8qx_b0/main/ipc.o
 .ARM.attributes
                0x0000000000000000       0x35 build_mx8qx_b0/main/ipc.o
 .text          0x0000000000000000        0x0 build_mx8qx_b0/main/monitor.o
 .data          0x0000000000000000        0x0 build_mx8qx_b0/main/monitor.o
 .bss           0x0000000000000000        0x0 build_mx8qx_b0/main/monitor.o
 .text          0x0000000000000000        0x0 build_mx8qx_b0/utilities/newlib_stubs.o
 .data          0x0000000000000000        0x0 build_mx8qx_b0/utilities/newlib_stubs.o
 .bss           0x0000000000000000        0x0 build_mx8qx_b0/utilities/newlib_stubs.o
 .text._fork    0x0000000000000000       0x10 build_mx8qx_b0/utilities/newlib_stubs.o
 .text._link    0x0000000000000000       0x10 build_mx8qx_b0/utilities/newlib_stubs.o
 .text._unlink  0x0000000000000000       0x10 build_mx8qx_b0/utilities/newlib_stubs.o
 .text          0x0000000000000000        0x0 build_mx8qx_b0/soc/MX8QX/soc.o
 .data          0x0000000000000000        0x0 build_mx8qx_b0/soc/MX8QX/soc.o
 .bss           0x0000000000000000        0x0 build_mx8qx_b0/soc/MX8QX/soc.o
 .text.soc_dsc_ai_dumpreg
                0x0000000000000000       0x12 build_mx8qx_b0/soc/MX8QX/soc.o
 .text.soc_dsc_ai_dumpmodule
                0x0000000000000000      0x142 build_mx8qx_b0/soc/MX8QX/soc.o
 .text.soc_dsc_ai_dump
                0x0000000000000000      0x1c2 build_mx8qx_b0/soc/MX8QX/soc.o
 .text.soc_anamix_test_out
                0x0000000000000000        0x2 build_mx8qx_b0/soc/MX8QX/soc.o
 .text          0x0000000000000000        0x0 build_mx8qx_b0/soc/common/soc_common.o
 .data          0x0000000000000000        0x0 build_mx8qx_b0/soc/common/soc_common.o
 .bss           0x0000000000000000        0x0 build_mx8qx_b0/soc/common/soc_common.o
 .text.soc_set_multicluster_power_mode
                0x0000000000000000        0x4 build_mx8qx_b0/soc/common/soc_common.o
 .text.soc_dump_hmp_power_state
                0x0000000000000000        0x2 build_mx8qx_b0/soc/common/soc_common.o
 .text.soc_ddr_dqs2dq_init
                0x0000000000000000       0x42 build_mx8qx_b0/soc/common/soc_common.o
 .text.soc_ddr_dqs2dq_periodic
                0x0000000000000000       0x40 build_mx8qx_b0/soc/common/soc_common.o
 .text          0x0000000000000000        0x0 build_mx8qx_b0/drivers/analog/fsl_analog.o
 .data          0x0000000000000000        0x0 build_mx8qx_b0/drivers/analog/fsl_analog.o
 .bss           0x0000000000000000        0x0 build_mx8qx_b0/drivers/analog/fsl_analog.o
 .text          0x0000000000000000        0x0 build_mx8qx_b0/drivers/analog/fsl_analog_refgen.o
 .data          0x0000000000000000        0x0 build_mx8qx_b0/drivers/analog/fsl_analog_refgen.o
 .bss           0x0000000000000000        0x0 build_mx8qx_b0/drivers/analog/fsl_analog_refgen.o
 .text          0x0000000000000000        0x0 build_mx8qx_b0/drivers/analog/fsl_analog_fbb.o
 .data          0x0000000000000000        0x0 build_mx8qx_b0/drivers/analog/fsl_analog_fbb.o
 .bss           0x0000000000000000        0x0 build_mx8qx_b0/drivers/analog/fsl_analog_fbb.o
 .text.ANA_FBB_Calc
                0x0000000000000000       0x18 build_mx8qx_b0/drivers/analog/fsl_analog_fbb.o
 .text.ANA_FBB_SetupEn
                0x0000000000000000       0x74 build_mx8qx_b0/drivers/analog/fsl_analog_fbb.o
 .text.ANA_FBB_ClearRefVCtrl
                0x0000000000000000        0xa build_mx8qx_b0/drivers/analog/fsl_analog_fbb.o
 .text.ANA_FBB_SetRefVCtrl
                0x0000000000000000       0x2e build_mx8qx_b0/drivers/analog/fsl_analog_fbb.o
 .debug_info    0x0000000000000000     0x23ec build_mx8qx_b0/drivers/analog/fsl_analog_fbb.o
 .debug_abbrev  0x0000000000000000      0x2bf build_mx8qx_b0/drivers/analog/fsl_analog_fbb.o
 .debug_loc     0x0000000000000000      0x166 build_mx8qx_b0/drivers/analog/fsl_analog_fbb.o
 .debug_aranges
                0x0000000000000000       0x38 build_mx8qx_b0/drivers/analog/fsl_analog_fbb.o
 .debug_ranges  0x0000000000000000       0x28 build_mx8qx_b0/drivers/analog/fsl_analog_fbb.o
 .debug_line    0x0000000000000000      0x74f build_mx8qx_b0/drivers/analog/fsl_analog_fbb.o
 .debug_str     0x0000000000000000     0x169a build_mx8qx_b0/drivers/analog/fsl_analog_fbb.o
 .comment       0x0000000000000000       0x80 build_mx8qx_b0/drivers/analog/fsl_analog_fbb.o
 .debug_frame   0x0000000000000000       0x74 build_mx8qx_b0/drivers/analog/fsl_analog_fbb.o
 .ARM.attributes
                0x0000000000000000       0x35 build_mx8qx_b0/drivers/analog/fsl_analog_fbb.o
 .text          0x0000000000000000        0x0 build_mx8qx_b0/drivers/csr/fsl_csr.o
 .data          0x0000000000000000        0x0 build_mx8qx_b0/drivers/csr/fsl_csr.o
 .bss           0x0000000000000000        0x0 build_mx8qx_b0/drivers/csr/fsl_csr.o
 .text.CSR_SetLPPG
                0x0000000000000000       0x1e build_mx8qx_b0/drivers/csr/fsl_csr.o
 .text.CSR_GetLPPG
                0x0000000000000000       0x10 build_mx8qx_b0/drivers/csr/fsl_csr.o
 .text          0x0000000000000000        0x0 build_mx8qx_b0/drivers/dsc/fsl_dsc.o
 .data          0x0000000000000000        0x0 build_mx8qx_b0/drivers/dsc/fsl_dsc.o
 .bss           0x0000000000000000        0x0 build_mx8qx_b0/drivers/dsc/fsl_dsc.o
 .text          0x0000000000000000        0x0 build_mx8qx_b0/drivers/dsc/fsl_dsc_ai.o
 .data          0x0000000000000000        0x0 build_mx8qx_b0/drivers/dsc/fsl_dsc_ai.o
 .bss           0x0000000000000000        0x0 build_mx8qx_b0/drivers/dsc/fsl_dsc_ai.o
 .text.DSC_AIBroadcastWrite
                0x0000000000000000       0x50 build_mx8qx_b0/drivers/dsc/fsl_dsc_ai.o
 .rodata.DSC_AIBroadcastWrite.str1.1
                0x0000000000000000       0x57 build_mx8qx_b0/drivers/dsc/fsl_dsc_ai.o
 .text          0x0000000000000000        0x0 build_mx8qx_b0/drivers/pad/fsl_pad.o
 .data          0x0000000000000000        0x0 build_mx8qx_b0/drivers/pad/fsl_pad.o
 .bss           0x0000000000000000        0x0 build_mx8qx_b0/drivers/pad/fsl_pad.o
 .text.PAD_Init
                0x0000000000000000        0x2 build_mx8qx_b0/drivers/pad/fsl_pad.o
 .text.PAD_GetGroupWakeupStatus
                0x0000000000000000        0xc build_mx8qx_b0/drivers/pad/fsl_pad.o
 .text.PAD_Dump
                0x0000000000000000        0x2 build_mx8qx_b0/drivers/pad/fsl_pad.o
 .text          0x0000000000000000        0x0 build_mx8qx_b0/drivers/sysctr/fsl_sysctr.o
 .data          0x0000000000000000        0x0 build_mx8qx_b0/drivers/sysctr/fsl_sysctr.o
 .bss           0x0000000000000000        0x0 build_mx8qx_b0/drivers/sysctr/fsl_sysctr.o
 .text.SYSCTR_GetUsec32
                0x0000000000000000        0xa build_mx8qx_b0/drivers/sysctr/fsl_sysctr.o
 .text.SYSCTR_TimeDelay
                0x0000000000000000       0x2a build_mx8qx_b0/drivers/sysctr/fsl_sysctr.o
 .text          0x0000000000000000        0x0 build_mx8qx_b0/drivers/xrdc2/fsl_xrdc2.o
 .data          0x0000000000000000        0x0 build_mx8qx_b0/drivers/xrdc2/fsl_xrdc2.o
 .bss           0x0000000000000000        0x0 build_mx8qx_b0/drivers/xrdc2/fsl_xrdc2.o
 .text.XRDC_Status
                0x0000000000000000       0x28 build_mx8qx_b0/drivers/xrdc2/fsl_xrdc2.o
 .text          0x0000000000000000        0x0 build_mx8qx_b0/drivers/mtr/fsl_mtr.o
 .data          0x0000000000000000        0x0 build_mx8qx_b0/drivers/mtr/fsl_mtr.o
 .bss           0x0000000000000000        0x0 build_mx8qx_b0/drivers/mtr/fsl_mtr.o
 .text          0x0000000000000000        0x0 build_mx8qx_b0/drivers/seco/v2/fsl_seco.o
 .data          0x0000000000000000        0x0 build_mx8qx_b0/drivers/seco/v2/fsl_seco.o
 .bss           0x0000000000000000        0x0 build_mx8qx_b0/drivers/seco/v2/fsl_seco.o
 .text.SECO_Ping
                0x0000000000000000       0x1c build_mx8qx_b0/drivers/seco/v2/fsl_seco.o
 .text.SECO_DumpDebug
                0x0000000000000000       0x58 build_mx8qx_b0/drivers/seco/v2/fsl_seco.o
 .rodata.SECO_DumpDebug.str1.1
                0x0000000000000000       0x11 build_mx8qx_b0/drivers/seco/v2/fsl_seco.o
 .text          0x0000000000000000        0x0 build_mx8qx_b0/drivers/gpio/fsl_gpio.o
 .data          0x0000000000000000        0x0 build_mx8qx_b0/drivers/gpio/fsl_gpio.o
 .bss           0x0000000000000000        0x0 build_mx8qx_b0/drivers/gpio/fsl_gpio.o
 .text.GPIO_PinInit
                0x0000000000000000       0x44 build_mx8qx_b0/drivers/gpio/fsl_gpio.o
 .text.FGPIO_PinInit
                0x0000000000000000       0x44 build_mx8qx_b0/drivers/gpio/fsl_gpio.o
 .rodata.GPIO_PinInit.str1.1
                0x0000000000000000       0x28 build_mx8qx_b0/drivers/gpio/fsl_gpio.o
 .rodata.__func__.7434
                0x0000000000000000        0xd build_mx8qx_b0/drivers/gpio/fsl_gpio.o
 .rodata.__func__.7440
                0x0000000000000000        0xe build_mx8qx_b0/drivers/gpio/fsl_gpio.o
 .debug_info    0x0000000000000000      0xbfb build_mx8qx_b0/drivers/gpio/fsl_gpio.o
 .debug_abbrev  0x0000000000000000      0x292 build_mx8qx_b0/drivers/gpio/fsl_gpio.o
 .debug_loc     0x0000000000000000      0x222 build_mx8qx_b0/drivers/gpio/fsl_gpio.o
 .debug_aranges
                0x0000000000000000       0x28 build_mx8qx_b0/drivers/gpio/fsl_gpio.o
 .debug_ranges  0x0000000000000000       0x48 build_mx8qx_b0/drivers/gpio/fsl_gpio.o
 .debug_line    0x0000000000000000      0x3e8 build_mx8qx_b0/drivers/gpio/fsl_gpio.o
 .debug_str     0x0000000000000000      0x752 build_mx8qx_b0/drivers/gpio/fsl_gpio.o
 .comment       0x0000000000000000       0x80 build_mx8qx_b0/drivers/gpio/fsl_gpio.o
 .debug_frame   0x0000000000000000       0x40 build_mx8qx_b0/drivers/gpio/fsl_gpio.o
 .ARM.attributes
                0x0000000000000000       0x35 build_mx8qx_b0/drivers/gpio/fsl_gpio.o
 .text          0x0000000000000000        0x0 build_mx8qx_b0/drivers/lmem/fsl_lmem_cache.o
 .data          0x0000000000000000        0x0 build_mx8qx_b0/drivers/lmem/fsl_lmem_cache.o
 .bss           0x0000000000000000        0x0 build_mx8qx_b0/drivers/lmem/fsl_lmem_cache.o
 .text.LMEM_CodeCacheInvalidateAll
                0x0000000000000000       0x18 build_mx8qx_b0/drivers/lmem/fsl_lmem_cache.o
 .text.LMEM_CodeCachePushAll
                0x0000000000000000       0x18 build_mx8qx_b0/drivers/lmem/fsl_lmem_cache.o
 .text.LMEM_EnableCodeCache
                0x0000000000000000       0x20 build_mx8qx_b0/drivers/lmem/fsl_lmem_cache.o
 .text.LMEM_CodeCacheClearAll
                0x0000000000000000       0x18 build_mx8qx_b0/drivers/lmem/fsl_lmem_cache.o
 .text.LMEM_CodeCacheInvalidateLine
                0x0000000000000000       0x1e build_mx8qx_b0/drivers/lmem/fsl_lmem_cache.o
 .text.LMEM_CodeCacheInvalidateMultiLines
                0x0000000000000000       0x2a build_mx8qx_b0/drivers/lmem/fsl_lmem_cache.o
 .text.LMEM_CodeCachePushLine
                0x0000000000000000       0x1e build_mx8qx_b0/drivers/lmem/fsl_lmem_cache.o
 .text.LMEM_CodeCachePushMultiLines
                0x0000000000000000       0x2a build_mx8qx_b0/drivers/lmem/fsl_lmem_cache.o
 .text.LMEM_CodeCacheClearLine
                0x0000000000000000       0x1a build_mx8qx_b0/drivers/lmem/fsl_lmem_cache.o
 .text.LMEM_CodeCacheClearMultiLines
                0x0000000000000000       0x2a build_mx8qx_b0/drivers/lmem/fsl_lmem_cache.o
 .text.LMEM_CodeCacheDemoteRegion
                0x0000000000000000       0x2a build_mx8qx_b0/drivers/lmem/fsl_lmem_cache.o
 .text.LMEM_SystemCacheInvalidateAll
                0x0000000000000000       0x22 build_mx8qx_b0/drivers/lmem/fsl_lmem_cache.o
 .text.LMEM_SystemCachePushAll
                0x0000000000000000       0x22 build_mx8qx_b0/drivers/lmem/fsl_lmem_cache.o
 .text.LMEM_EnableSystemCache
                0x0000000000000000       0x26 build_mx8qx_b0/drivers/lmem/fsl_lmem_cache.o
 .text.LMEM_SystemCacheClearAll
                0x0000000000000000       0x22 build_mx8qx_b0/drivers/lmem/fsl_lmem_cache.o
 .text.LMEM_SystemCacheInvalidateLine
                0x0000000000000000       0x26 build_mx8qx_b0/drivers/lmem/fsl_lmem_cache.o
 .text.LMEM_SystemCacheInvalidateMultiLines
                0x0000000000000000       0x2a build_mx8qx_b0/drivers/lmem/fsl_lmem_cache.o
 .text.LMEM_SystemCachePushLine
                0x0000000000000000       0x26 build_mx8qx_b0/drivers/lmem/fsl_lmem_cache.o
 .text.LMEM_SystemCachePushMultiLines
                0x0000000000000000       0x2a build_mx8qx_b0/drivers/lmem/fsl_lmem_cache.o
 .text.LMEM_SystemCacheClearLine
                0x0000000000000000       0x22 build_mx8qx_b0/drivers/lmem/fsl_lmem_cache.o
 .text.LMEM_SystemCacheClearMultiLines
                0x0000000000000000       0x2a build_mx8qx_b0/drivers/lmem/fsl_lmem_cache.o
 .text.LMEM_SystemCacheDemoteRegion
                0x0000000000000000       0x2e build_mx8qx_b0/drivers/lmem/fsl_lmem_cache.o
 .debug_info    0x0000000000000000     0x11d5 build_mx8qx_b0/drivers/lmem/fsl_lmem_cache.o
 .debug_abbrev  0x0000000000000000      0x306 build_mx8qx_b0/drivers/lmem/fsl_lmem_cache.o
 .debug_loc     0x0000000000000000      0x62a build_mx8qx_b0/drivers/lmem/fsl_lmem_cache.o
 .debug_aranges
                0x0000000000000000       0xc8 build_mx8qx_b0/drivers/lmem/fsl_lmem_cache.o
 .debug_ranges  0x0000000000000000       0xb8 build_mx8qx_b0/drivers/lmem/fsl_lmem_cache.o
 .debug_line    0x0000000000000000      0x5dd build_mx8qx_b0/drivers/lmem/fsl_lmem_cache.o
 .debug_str     0x0000000000000000      0xc2a build_mx8qx_b0/drivers/lmem/fsl_lmem_cache.o
 .comment       0x0000000000000000       0x80 build_mx8qx_b0/drivers/lmem/fsl_lmem_cache.o
 .debug_frame   0x0000000000000000      0x228 build_mx8qx_b0/drivers/lmem/fsl_lmem_cache.o
 .ARM.attributes
                0x0000000000000000       0x35 build_mx8qx_b0/drivers/lmem/fsl_lmem_cache.o
 .text          0x0000000000000000        0x0 build_mx8qx_b0/drivers/lpi2c/fsl_lpi2c.o
 .data          0x0000000000000000        0x0 build_mx8qx_b0/drivers/lpi2c/fsl_lpi2c.o
 .bss           0x0000000000000000        0x0 build_mx8qx_b0/drivers/lpi2c/fsl_lpi2c.o
 .text.LPI2C_CommonIRQHandler
                0x0000000000000000       0x48 build_mx8qx_b0/drivers/lpi2c/fsl_lpi2c.o
 .text.LPI2C_SlaveCheckAndClearError
                0x0000000000000000       0x40 build_mx8qx_b0/drivers/lpi2c/fsl_lpi2c.o
 .text.LPI2C_SlaveTransferHandleIRQ
                0x0000000000000000      0x150 build_mx8qx_b0/drivers/lpi2c/fsl_lpi2c.o
 .text.LPI2C_MasterTransferHandleIRQ
                0x0000000000000000      0x150 build_mx8qx_b0/drivers/lpi2c/fsl_lpi2c.o
 .text.LPI2C_MasterDeinit
                0x0000000000000000       0x20 build_mx8qx_b0/drivers/lpi2c/fsl_lpi2c.o
 .text.LPI2C_MasterConfigureDataMatch
                0x0000000000000000       0x4c build_mx8qx_b0/drivers/lpi2c/fsl_lpi2c.o
 .text.LPI2C_MasterTransferCreateHandle
                0x0000000000000000       0x6c build_mx8qx_b0/drivers/lpi2c/fsl_lpi2c.o
 .text.LPI2C_MasterTransferNonBlocking
                0x0000000000000000      0x128 build_mx8qx_b0/drivers/lpi2c/fsl_lpi2c.o
 .text.LPI2C_MasterTransferGetCount
                0x0000000000000000       0x5c build_mx8qx_b0/drivers/lpi2c/fsl_lpi2c.o
 .text.LPI2C_MasterTransferAbort
                0x0000000000000000       0x24 build_mx8qx_b0/drivers/lpi2c/fsl_lpi2c.o
 .text.LPI2C_SlaveGetDefaultConfig
                0x0000000000000000       0x28 build_mx8qx_b0/drivers/lpi2c/fsl_lpi2c.o
 .text.LPI2C_SlaveInit
                0x0000000000000000       0xfc build_mx8qx_b0/drivers/lpi2c/fsl_lpi2c.o
 .text.LPI2C_SlaveDeinit
                0x0000000000000000       0x24 build_mx8qx_b0/drivers/lpi2c/fsl_lpi2c.o
 .text.LPI2C_SlaveSend
                0x0000000000000000       0x84 build_mx8qx_b0/drivers/lpi2c/fsl_lpi2c.o
 .text.LPI2C_SlaveReceive
                0x0000000000000000       0x84 build_mx8qx_b0/drivers/lpi2c/fsl_lpi2c.o
 .text.LPI2C_SlaveTransferCreateHandle
                0x0000000000000000       0x78 build_mx8qx_b0/drivers/lpi2c/fsl_lpi2c.o
 .text.LPI2C_SlaveTransferNonBlocking
                0x0000000000000000       0x80 build_mx8qx_b0/drivers/lpi2c/fsl_lpi2c.o
 .text.LPI2C_SlaveTransferGetCount
                0x0000000000000000       0x38 build_mx8qx_b0/drivers/lpi2c/fsl_lpi2c.o
 .text.LPI2C_SlaveTransferAbort
                0x0000000000000000       0x4c build_mx8qx_b0/drivers/lpi2c/fsl_lpi2c.o
 .text.LPI2C0_DriverIRQHandler
                0x0000000000000000        0xc build_mx8qx_b0/drivers/lpi2c/fsl_lpi2c.o
 .text.LPI2C1_DriverIRQHandler
                0x0000000000000000        0xc build_mx8qx_b0/drivers/lpi2c/fsl_lpi2c.o
 .text.LPI2C2_DriverIRQHandler
                0x0000000000000000        0xa build_mx8qx_b0/drivers/lpi2c/fsl_lpi2c.o
 .bss.s_lpi2cMasterHandle
                0x0000000000000000       0x30 build_mx8qx_b0/drivers/lpi2c/fsl_lpi2c.o
 .bss.s_lpi2cMasterIsr
                0x0000000000000000        0x4 build_mx8qx_b0/drivers/lpi2c/fsl_lpi2c.o
 .bss.s_lpi2cSlaveHandle
                0x0000000000000000       0x30 build_mx8qx_b0/drivers/lpi2c/fsl_lpi2c.o
 .bss.s_lpi2cSlaveIsr
                0x0000000000000000        0x4 build_mx8qx_b0/drivers/lpi2c/fsl_lpi2c.o
 .rodata.LPI2C_MasterTransferCreateHandle.str1.1
                0x0000000000000000        0x7 build_mx8qx_b0/drivers/lpi2c/fsl_lpi2c.o
 .rodata.LPI2C_MasterTransferNonBlocking.str1.1
                0x0000000000000000       0x42 build_mx8qx_b0/drivers/lpi2c/fsl_lpi2c.o
 .rodata.__func__.7904
                0x0000000000000000       0x21 build_mx8qx_b0/drivers/lpi2c/fsl_lpi2c.o
 .rodata.__func__.7924
                0x0000000000000000       0x1e build_mx8qx_b0/drivers/lpi2c/fsl_lpi2c.o
 .rodata.__func__.7946
                0x0000000000000000       0x20 build_mx8qx_b0/drivers/lpi2c/fsl_lpi2c.o
 .rodata.__func__.7952
                0x0000000000000000       0x1d build_mx8qx_b0/drivers/lpi2c/fsl_lpi2c.o
 .rodata.__func__.7991
                0x0000000000000000       0x1e build_mx8qx_b0/drivers/lpi2c/fsl_lpi2c.o
 .rodata.__func__.8000
                0x0000000000000000       0x10 build_mx8qx_b0/drivers/lpi2c/fsl_lpi2c.o
 .rodata.__func__.8016
                0x0000000000000000       0x13 build_mx8qx_b0/drivers/lpi2c/fsl_lpi2c.o
 .rodata.__func__.8031
                0x0000000000000000       0x20 build_mx8qx_b0/drivers/lpi2c/fsl_lpi2c.o
 .rodata.__func__.8038
                0x0000000000000000       0x1f build_mx8qx_b0/drivers/lpi2c/fsl_lpi2c.o
 .rodata.__func__.8044
                0x0000000000000000       0x1c build_mx8qx_b0/drivers/lpi2c/fsl_lpi2c.o
 .rodata.__func__.8049
                0x0000000000000000       0x19 build_mx8qx_b0/drivers/lpi2c/fsl_lpi2c.o
 .text          0x0000000000000000        0x0 build_mx8qx_b0/drivers/lpit/fsl_lpit.o
 .data          0x0000000000000000        0x0 build_mx8qx_b0/drivers/lpit/fsl_lpit.o
 .bss           0x0000000000000000        0x0 build_mx8qx_b0/drivers/lpit/fsl_lpit.o
 .text.LPIT_Deinit
                0x0000000000000000       0x14 build_mx8qx_b0/drivers/lpit/fsl_lpit.o
 .text.LPIT_GetDefaultConfig
                0x0000000000000000       0x24 build_mx8qx_b0/drivers/lpit/fsl_lpit.o
 .rodata.__func__.7480
                0x0000000000000000       0x16 build_mx8qx_b0/drivers/lpit/fsl_lpit.o
 .text          0x0000000000000000        0x0 build_mx8qx_b0/drivers/lpcg/fsl_lpcg.o
 .data          0x0000000000000000        0x0 build_mx8qx_b0/drivers/lpcg/fsl_lpcg.o
 .bss           0x0000000000000000        0x0 build_mx8qx_b0/drivers/lpcg/fsl_lpcg.o
 .text.LPCG_ClockOff
                0x0000000000000000       0x12 build_mx8qx_b0/drivers/lpcg/fsl_lpcg.o
 .text.LPCG_AllClockOff
                0x0000000000000000        0x6 build_mx8qx_b0/drivers/lpcg/fsl_lpcg.o
 .text          0x0000000000000000        0x0 build_mx8qx_b0/drivers/lpuart/fsl_lpuart.o
 .data          0x0000000000000000        0x0 build_mx8qx_b0/drivers/lpuart/fsl_lpuart.o
 .bss           0x0000000000000000        0x0 build_mx8qx_b0/drivers/lpuart/fsl_lpuart.o
 .text.LPUART_TransferIsRxRingBufferFull.isra.2
                0x0000000000000000       0x2c build_mx8qx_b0/drivers/lpuart/fsl_lpuart.o
 .text.LPUART_SetBaudRate
                0x0000000000000000       0xc0 build_mx8qx_b0/drivers/lpuart/fsl_lpuart.o
 .text.LPUART_EnableInterrupts
                0x0000000000000000       0x28 build_mx8qx_b0/drivers/lpuart/fsl_lpuart.o
 .text.LPUART_DisableInterrupts
                0x0000000000000000       0x2e build_mx8qx_b0/drivers/lpuart/fsl_lpuart.o
 .text.LPUART_TransferHandleIRQ
                0x0000000000000000      0x1cc build_mx8qx_b0/drivers/lpuart/fsl_lpuart.o
 .text.LPUART_GetEnabledInterrupts
                0x0000000000000000       0x26 build_mx8qx_b0/drivers/lpuart/fsl_lpuart.o
 .text.LPUART_TransferCreateHandle
                0x0000000000000000       0x74 build_mx8qx_b0/drivers/lpuart/fsl_lpuart.o
 .text.LPUART_TransferStartRingBuffer
                0x0000000000000000       0x38 build_mx8qx_b0/drivers/lpuart/fsl_lpuart.o
 .text.LPUART_TransferStopRingBuffer
                0x0000000000000000       0x3c build_mx8qx_b0/drivers/lpuart/fsl_lpuart.o
 .text.LPUART_TransferSendNonBlocking
                0x0000000000000000       0x34 build_mx8qx_b0/drivers/lpuart/fsl_lpuart.o
 .text.LPUART_TransferAbortSend
                0x0000000000000000       0x16 build_mx8qx_b0/drivers/lpuart/fsl_lpuart.o
 .text.LPUART_TransferGetSendCount
                0x0000000000000000       0x1c build_mx8qx_b0/drivers/lpuart/fsl_lpuart.o
 .text.LPUART_TransferReceiveNonBlocking
                0x0000000000000000       0xf0 build_mx8qx_b0/drivers/lpuart/fsl_lpuart.o
 .text.LPUART_TransferAbortReceive
                0x0000000000000000       0x1c build_mx8qx_b0/drivers/lpuart/fsl_lpuart.o
 .text.LPUART_TransferGetReceiveCount
                0x0000000000000000       0x1e build_mx8qx_b0/drivers/lpuart/fsl_lpuart.o
 .text.LPUART_TransferHandleErrorIRQ
                0x0000000000000000        0x2 build_mx8qx_b0/drivers/lpuart/fsl_lpuart.o
 .text.LPUART0_DriverIRQHandler
                0x0000000000000000       0x18 build_mx8qx_b0/drivers/lpuart/fsl_lpuart.o
 .text.LPUART1_DriverIRQHandler
                0x0000000000000000       0x18 build_mx8qx_b0/drivers/lpuart/fsl_lpuart.o
 .text.LPUART2_DriverIRQHandler
                0x0000000000000000       0x18 build_mx8qx_b0/drivers/lpuart/fsl_lpuart.o
 .text.LPUART3_DriverIRQHandler
                0x0000000000000000       0x18 build_mx8qx_b0/drivers/lpuart/fsl_lpuart.o
 .text.LPUART4_DriverIRQHandler
                0x0000000000000000       0x18 build_mx8qx_b0/drivers/lpuart/fsl_lpuart.o
 .text.LPUART5_DriverIRQHandler
                0x0000000000000000       0x18 build_mx8qx_b0/drivers/lpuart/fsl_lpuart.o
 .bss.s_lpuartHandle
                0x0000000000000000       0x18 build_mx8qx_b0/drivers/lpuart/fsl_lpuart.o
 .bss.s_lpuartIsr
                0x0000000000000000        0x4 build_mx8qx_b0/drivers/lpuart/fsl_lpuart.o
 .rodata.LPUART_SetBaudRate.str1.1
                0x0000000000000000        0xd build_mx8qx_b0/drivers/lpuart/fsl_lpuart.o
 .rodata.LPUART_TransferHandleIRQ.str1.1
                0x0000000000000000        0x7 build_mx8qx_b0/drivers/lpuart/fsl_lpuart.o
 .rodata.__func__.7728
                0x0000000000000000       0x13 build_mx8qx_b0/drivers/lpuart/fsl_lpuart.o
 .rodata.__func__.7792
                0x0000000000000000       0x1c build_mx8qx_b0/drivers/lpuart/fsl_lpuart.o
 .rodata.__func__.7800
                0x0000000000000000       0x1f build_mx8qx_b0/drivers/lpuart/fsl_lpuart.o
 .rodata.__func__.7805
                0x0000000000000000       0x1e build_mx8qx_b0/drivers/lpuart/fsl_lpuart.o
 .rodata.__func__.7852
                0x0000000000000000       0x19 build_mx8qx_b0/drivers/lpuart/fsl_lpuart.o
 .text          0x0000000000000000        0x0 build_mx8qx_b0/drivers/mu/fsl_mu.o
 .data          0x0000000000000000        0x0 build_mx8qx_b0/drivers/mu/fsl_mu.o
 .bss           0x0000000000000000        0x0 build_mx8qx_b0/drivers/mu/fsl_mu.o
 .text.MU_BootCoreB
                0x0000000000000000       0x16 build_mx8qx_b0/drivers/mu/fsl_mu.o
 .text          0x0000000000000000        0x0 build_mx8qx_b0/drivers/otp/fsl_otp.o
 .data          0x0000000000000000        0x0 build_mx8qx_b0/drivers/otp/fsl_otp.o
 .bss           0x0000000000000000        0x0 build_mx8qx_b0/drivers/otp/fsl_otp.o
 .text.OTP_Read
                0x0000000000000000       0x90 build_mx8qx_b0/drivers/otp/fsl_otp.o
 .text.OTP_Set_Fuse
                0x0000000000000000       0x48 build_mx8qx_b0/drivers/otp/fsl_otp.o
 .text          0x0000000000000000        0x0 build_mx8qx_b0/drivers/stc/fsl_stc.o
 .data          0x0000000000000000        0x0 build_mx8qx_b0/drivers/stc/fsl_stc.o
 .bss           0x0000000000000000        0x0 build_mx8qx_b0/drivers/stc/fsl_stc.o
 .text          0x0000000000000000        0x0 build_mx8qx_b0/drivers/systick/fsl_systick.o
 .data          0x0000000000000000        0x0 build_mx8qx_b0/drivers/systick/fsl_systick.o
 .bss           0x0000000000000000        0x0 build_mx8qx_b0/drivers/systick/fsl_systick.o
 .text.SYSTICK_GetCounter32
                0x0000000000000000        0xc build_mx8qx_b0/drivers/systick/fsl_systick.o
 .text.SYSTICK_TimeDelayVar
                0x0000000000000000       0x2e build_mx8qx_b0/drivers/systick/fsl_systick.o
 .text.SYSTICK_NsecDiff
                0x0000000000000000       0x18 build_mx8qx_b0/drivers/systick/fsl_systick.o
 .text          0x0000000000000000        0x0 build_mx8qx_b0/drivers/drc/fsl_drc.o
 .data          0x0000000000000000        0x0 build_mx8qx_b0/drivers/drc/fsl_drc.o
 .bss           0x0000000000000000        0x0 build_mx8qx_b0/drivers/drc/fsl_drc.o
 .text          0x0000000000000000        0x0 build_mx8qx_b0/drivers/drc/fsl_drc_dqs2dq.o
 .data          0x0000000000000000        0x0 build_mx8qx_b0/drivers/drc/fsl_drc_dqs2dq.o
 .bss           0x0000000000000000        0x0 build_mx8qx_b0/drivers/drc/fsl_drc_dqs2dq.o
 .text.WRM32    0x0000000000000000        0xc build_mx8qx_b0/drivers/drc/fsl_drc_dqs2dq.o
 .text.configure_hw_low_power_interface
                0x0000000000000000       0x56 build_mx8qx_b0/drivers/drc/fsl_drc_dqs2dq.o
 .text.restore_DDR_configuration
                0x0000000000000000       0x64 build_mx8qx_b0/drivers/drc/fsl_drc_dqs2dq.o
 .text.ddrc_mrr
                0x0000000000000000       0xa6 build_mx8qx_b0/drivers/drc/fsl_drc_dqs2dq.o
 .text.inhibit_VT_compensation
                0x0000000000000000       0x28 build_mx8qx_b0/drivers/drc/fsl_drc_dqs2dq.o
 .text.enable_VT_compensation
                0x0000000000000000       0x2c build_mx8qx_b0/drivers/drc/fsl_drc_dqs2dq.o
 .text.backup_DDR_configuration.isra.1
                0x0000000000000000       0x3c build_mx8qx_b0/drivers/drc/fsl_drc_dqs2dq.o
 .text.ddrc_mrw.constprop.5
                0x0000000000000000       0x6c build_mx8qx_b0/drivers/drc/fsl_drc_dqs2dq.o
 .text.capture_osc_count
                0x0000000000000000      0x1a8 build_mx8qx_b0/drivers/drc/fsl_drc_dqs2dq.o
 .text.capture_delay_line_setting
                0x0000000000000000       0xf4 build_mx8qx_b0/drivers/drc/fsl_drc_dqs2dq.o
 .text.dqs2dq_init
                0x0000000000000000       0xe0 build_mx8qx_b0/drivers/drc/fsl_drc_dqs2dq.o
 .text.dqs2dq_periodic
                0x0000000000000000      0x2e8 build_mx8qx_b0/drivers/drc/fsl_drc_dqs2dq.o
 .bss.global_drc_num
                0x0000000000000000        0x4 build_mx8qx_b0/drivers/drc/fsl_drc_dqs2dq.o
 .bss.tdqs2dq_new_data
                0x0000000000000000      0x114 build_mx8qx_b0/drivers/drc/fsl_drc_dqs2dq.o
 .bss.tdqs2dq_original_data
                0x0000000000000000      0x114 build_mx8qx_b0/drivers/drc/fsl_drc_dqs2dq.o
 .data.ptdqs2dq_new
                0x0000000000000000        0x4 build_mx8qx_b0/drivers/drc/fsl_drc_dqs2dq.o
 .data.ptdqs2dq_original
                0x0000000000000000        0x4 build_mx8qx_b0/drivers/drc/fsl_drc_dqs2dq.o
 .debug_info    0x0000000000000000     0x3085 build_mx8qx_b0/drivers/drc/fsl_drc_dqs2dq.o
 .debug_abbrev  0x0000000000000000      0x4a2 build_mx8qx_b0/drivers/drc/fsl_drc_dqs2dq.o
 .debug_loc     0x0000000000000000      0xbc5 build_mx8qx_b0/drivers/drc/fsl_drc_dqs2dq.o
 .debug_aranges
                0x0000000000000000       0x78 build_mx8qx_b0/drivers/drc/fsl_drc_dqs2dq.o
 .debug_ranges  0x0000000000000000      0x1a8 build_mx8qx_b0/drivers/drc/fsl_drc_dqs2dq.o
 .debug_line    0x0000000000000000      0xb9e build_mx8qx_b0/drivers/drc/fsl_drc_dqs2dq.o
 .debug_str     0x0000000000000000     0x1ac0 build_mx8qx_b0/drivers/drc/fsl_drc_dqs2dq.o
 .comment       0x0000000000000000       0x80 build_mx8qx_b0/drivers/drc/fsl_drc_dqs2dq.o
 .debug_frame   0x0000000000000000      0x19c build_mx8qx_b0/drivers/drc/fsl_drc_dqs2dq.o
 .ARM.attributes
                0x0000000000000000       0x35 build_mx8qx_b0/drivers/drc/fsl_drc_dqs2dq.o
 .text          0x0000000000000000        0x0 build_mx8qx_b0/drivers/wdog32/fsl_wdog32.o
 .data          0x0000000000000000        0x0 build_mx8qx_b0/drivers/wdog32/fsl_wdog32.o
 .bss           0x0000000000000000        0x0 build_mx8qx_b0/drivers/wdog32/fsl_wdog32.o
 .text.WDOG32_ClearStatusFlags
                0x0000000000000000        0xe build_mx8qx_b0/drivers/wdog32/fsl_wdog32.o
 .text.WDOG32_GetDefaultConfig
                0x0000000000000000       0x40 build_mx8qx_b0/drivers/wdog32/fsl_wdog32.o
 .text.WDOG32_Init
                0x0000000000000000       0x94 build_mx8qx_b0/drivers/wdog32/fsl_wdog32.o
 .text.WDOG32_Deinit
                0x0000000000000000       0x1c build_mx8qx_b0/drivers/wdog32/fsl_wdog32.o
 .rodata.WDOG32_GetDefaultConfig.str1.1
                0x0000000000000000       0x2c build_mx8qx_b0/drivers/wdog32/fsl_wdog32.o
 .rodata.__func__.7450
                0x0000000000000000       0x18 build_mx8qx_b0/drivers/wdog32/fsl_wdog32.o
 .rodata.__func__.7455
                0x0000000000000000        0xc build_mx8qx_b0/drivers/wdog32/fsl_wdog32.o
 .debug_info    0x0000000000000000      0xe3f build_mx8qx_b0/drivers/wdog32/fsl_wdog32.o
 .debug_abbrev  0x0000000000000000      0x314 build_mx8qx_b0/drivers/wdog32/fsl_wdog32.o
 .debug_loc     0x0000000000000000      0x112 build_mx8qx_b0/drivers/wdog32/fsl_wdog32.o
 .debug_aranges
                0x0000000000000000       0x38 build_mx8qx_b0/drivers/wdog32/fsl_wdog32.o
 .debug_ranges  0x0000000000000000       0x28 build_mx8qx_b0/drivers/wdog32/fsl_wdog32.o
 .debug_line    0x0000000000000000      0x4bd build_mx8qx_b0/drivers/wdog32/fsl_wdog32.o
 .debug_str     0x0000000000000000      0x9df build_mx8qx_b0/drivers/wdog32/fsl_wdog32.o
 .comment       0x0000000000000000       0x80 build_mx8qx_b0/drivers/wdog32/fsl_wdog32.o
 .debug_frame   0x0000000000000000       0x60 build_mx8qx_b0/drivers/wdog32/fsl_wdog32.o
 .ARM.attributes
                0x0000000000000000       0x35 build_mx8qx_b0/drivers/wdog32/fsl_wdog32.o
 .text          0x0000000000000000        0x0 build_mx8qx_b0/drivers/snvs/v2/fsl_snvs.o
 .data          0x0000000000000000        0x0 build_mx8qx_b0/drivers/snvs/v2/fsl_snvs.o
 .bss           0x0000000000000000        0x0 build_mx8qx_b0/drivers/snvs/v2/fsl_snvs.o
 .text.SNVS_SetSecureRtc
                0x0000000000000000       0x16 build_mx8qx_b0/drivers/snvs/v2/fsl_snvs.o
 .text.SNVS_GetSecureRtcCalb
                0x0000000000000000       0x1a build_mx8qx_b0/drivers/snvs/v2/fsl_snvs.o
 .text.SNVS_GetSecureRtcAlarm
                0x0000000000000000       0x16 build_mx8qx_b0/drivers/snvs/v2/fsl_snvs.o
 .text.SNVS_GetRtcAlarm
                0x0000000000000000       0x16 build_mx8qx_b0/drivers/snvs/v2/fsl_snvs.o
 .text.SNVS_ButtonTime
                0x0000000000000000       0x22 build_mx8qx_b0/drivers/snvs/v2/fsl_snvs.o
 .text          0x0000000000000000        0x0 build_mx8qx_b0/drivers/pmic/fsl_pmic.o
 .data          0x0000000000000000        0x0 build_mx8qx_b0/drivers/pmic/fsl_pmic.o
 .bss           0x0000000000000000        0x0 build_mx8qx_b0/drivers/pmic/fsl_pmic.o
 .text.pf8x00_crc_data
                0x0000000000000000       0x74 build_mx8qx_b0/drivers/pmic/fsl_pmic.o
 .text.i2c_j1850_write
                0x0000000000000000       0x7c build_mx8qx_b0/drivers/pmic/fsl_pmic.o
 .text.i2c_j1850_read
                0x0000000000000000       0xb0 build_mx8qx_b0/drivers/pmic/fsl_pmic.o
 .rodata.i2c_j1850_write.str1.1
                0x0000000000000000       0x1a build_mx8qx_b0/drivers/pmic/fsl_pmic.o
 .text          0x0000000000000000        0x0 build_mx8qx_b0/drivers/pmic/pf8100/fsl_pf8100.o
 .data          0x0000000000000000        0x0 build_mx8qx_b0/drivers/pmic/pf8100/fsl_pf8100.o
 .bss           0x0000000000000000        0x0 build_mx8qx_b0/drivers/pmic/pf8100/fsl_pf8100.o
 .text.pf8100_pmic_get_mode
                0x0000000000000000       0x7c build_mx8qx_b0/drivers/pmic/pf8100/fsl_pf8100.o
 .rodata.pf8100_pmic_get_mode.str1.1
                0x0000000000000000       0x34 build_mx8qx_b0/drivers/pmic/pf8100/fsl_pf8100.o
 .text          0x0000000000000000        0x0 build_mx8qx_b0/drivers/pmic/pf100/fsl_pf100.o
 .data          0x0000000000000000        0x0 build_mx8qx_b0/drivers/pmic/pf100/fsl_pf100.o
 .bss           0x0000000000000000        0x0 build_mx8qx_b0/drivers/pmic/pf100/fsl_pf100.o
 .text.pf100_get_pmic_version
                0x0000000000000000       0x4e build_mx8qx_b0/drivers/pmic/pf100/fsl_pf100.o
 .text.pf100_pmic_set_voltage
                0x0000000000000000      0x204 build_mx8qx_b0/drivers/pmic/pf100/fsl_pf100.o
 .text.pf100_pmic_set_mode
                0x0000000000000000       0x90 build_mx8qx_b0/drivers/pmic/pf100/fsl_pf100.o
 .text.pf100_get_pmic_temp
                0x0000000000000000       0x3e build_mx8qx_b0/drivers/pmic/pf100/fsl_pf100.o
 .text.pf100_set_pmic_temp_alarm
                0x0000000000000000       0x60 build_mx8qx_b0/drivers/pmic/pf100/fsl_pf100.o
 .text.pf100_pmic_irq_service
                0x0000000000000000       0x60 build_mx8qx_b0/drivers/pmic/pf100/fsl_pf100.o
 .rodata.pf100_pmic_set_mode.str1.1
                0x0000000000000000       0x34 build_mx8qx_b0/drivers/pmic/pf100/fsl_pf100.o
 .rodata.pf100_pmic_set_voltage.str1.1
                0x0000000000000000       0x7e build_mx8qx_b0/drivers/pmic/pf100/fsl_pf100.o
 .text          0x0000000000000000        0x0 build_mx8qx_b0/ss/inf/inf.o
 .data          0x0000000000000000        0x0 build_mx8qx_b0/ss/inf/inf.o
 .bss           0x0000000000000000        0x0 build_mx8qx_b0/ss/inf/inf.o
 .text.ss_is_rsrc_accessible
                0x0000000000000000       0x54 build_mx8qx_b0/ss/inf/inf.o
 .text.ss_dump  0x0000000000000000       0x68 build_mx8qx_b0/ss/inf/inf.o
 .text          0x0000000000000000        0x0 build_mx8qx_b0/ss/sc/v2/ss.o
 .data          0x0000000000000000        0x0 build_mx8qx_b0/ss/sc/v2/ss.o
 .bss           0x0000000000000000        0x0 build_mx8qx_b0/ss/sc/v2/ss.o
 .text          0x0000000000000000        0x0 build_mx8qx_b0/ss/adma/v2/ss.o
 .data          0x0000000000000000        0x0 build_mx8qx_b0/ss/adma/v2/ss.o
 .bss           0x0000000000000000        0x0 build_mx8qx_b0/ss/adma/v2/ss.o
 .text          0x0000000000000000        0x0 build_mx8qx_b0/ss/vpu/v4/ss.o
 .data          0x0000000000000000        0x0 build_mx8qx_b0/ss/vpu/v4/ss.o
 .bss           0x0000000000000000        0x0 build_mx8qx_b0/ss/vpu/v4/ss.o
 .text          0x0000000000000000        0x0 build_mx8qx_b0/ss/lsio/v2/ss.o
 .data          0x0000000000000000        0x0 build_mx8qx_b0/ss/lsio/v2/ss.o
 .bss           0x0000000000000000        0x0 build_mx8qx_b0/ss/lsio/v2/ss.o
 .text          0x0000000000000000        0x0 build_mx8qx_b0/ss/a35/v1/ss.o
 .data          0x0000000000000000        0x0 build_mx8qx_b0/ss/a35/v1/ss.o
 .bss           0x0000000000000000        0x0 build_mx8qx_b0/ss/a35/v1/ss.o
 .text          0x0000000000000000        0x0 build_mx8qx_b0/ss/base/ss.o
 .data          0x0000000000000000        0x0 build_mx8qx_b0/ss/base/ss.o
 .bss           0x0000000000000000        0x0 build_mx8qx_b0/ss/base/ss.o
 .text.ss_dump_header_base
                0x0000000000000000        0x2 build_mx8qx_b0/ss/base/ss.o
 .text.ss_dump_clocks
                0x0000000000000000        0x2 build_mx8qx_b0/ss/base/ss.o
 .text.ss_dump_master_counts_base
                0x0000000000000000        0x2 build_mx8qx_b0/ss/base/ss.o
 .text.ss_ssi_po_link
                0x0000000000000000       0x90 build_mx8qx_b0/ss/base/ss.o
 .text          0x0000000000000000        0x0 build_mx8qx_b0/ss/conn/v1/ss.o
 .data          0x0000000000000000        0x0 build_mx8qx_b0/ss/conn/v1/ss.o
 .bss           0x0000000000000000        0x0 build_mx8qx_b0/ss/conn/v1/ss.o
 .text          0x0000000000000000        0x0 build_mx8qx_b0/ss/csi/v1/ss.o
 .data          0x0000000000000000        0x0 build_mx8qx_b0/ss/csi/v1/ss.o
 .bss           0x0000000000000000        0x0 build_mx8qx_b0/ss/csi/v1/ss.o
 .text          0x0000000000000000        0x0 build_mx8qx_b0/ss/db/v2/ss.o
 .data          0x0000000000000000        0x0 build_mx8qx_b0/ss/db/v2/ss.o
 .bss           0x0000000000000000        0x0 build_mx8qx_b0/ss/db/v2/ss.o
 .text          0x0000000000000000        0x0 build_mx8qx_b0/ss/dc/v1/ss.o
 .data          0x0000000000000000        0x0 build_mx8qx_b0/ss/dc/v1/ss.o
 .bss           0x0000000000000000        0x0 build_mx8qx_b0/ss/dc/v1/ss.o
 .text          0x0000000000000000        0x0 build_mx8qx_b0/ss/drc/v2/ss.o
 .data          0x0000000000000000        0x0 build_mx8qx_b0/ss/drc/v2/ss.o
 .bss           0x0000000000000000        0x0 build_mx8qx_b0/ss/drc/v2/ss.o
 .text.ss_drc_enable
                0x0000000000000000       0x1c build_mx8qx_b0/ss/drc/v2/ss.o
 .text.ss_drc_get_config
                0x0000000000000000       0x20 build_mx8qx_b0/ss/drc/v2/ss.o
 .text          0x0000000000000000        0x0 build_mx8qx_b0/ss/gpu/v2/ss.o
 .data          0x0000000000000000        0x0 build_mx8qx_b0/ss/gpu/v2/ss.o
 .bss           0x0000000000000000        0x0 build_mx8qx_b0/ss/gpu/v2/ss.o
 .text          0x0000000000000000        0x0 build_mx8qx_b0/ss/hsio/v2/ss.o
 .data          0x0000000000000000        0x0 build_mx8qx_b0/ss/hsio/v2/ss.o
 .bss           0x0000000000000000        0x0 build_mx8qx_b0/ss/hsio/v2/ss.o
 .text          0x0000000000000000        0x0 build_mx8qx_b0/ss/img/v1/ss.o
 .data          0x0000000000000000        0x0 build_mx8qx_b0/ss/img/v1/ss.o
 .bss           0x0000000000000000        0x0 build_mx8qx_b0/ss/img/v1/ss.o
 .text          0x0000000000000000        0x0 build_mx8qx_b0/ss/m4/v1/ss.o
 .data          0x0000000000000000        0x0 build_mx8qx_b0/ss/m4/v1/ss.o
 .bss           0x0000000000000000        0x0 build_mx8qx_b0/ss/m4/v1/ss.o
 .text          0x0000000000000000        0x0 build_mx8qx_b0/ss/mipi/v2/ss.o
 .data          0x0000000000000000        0x0 build_mx8qx_b0/ss/mipi/v2/ss.o
 .bss           0x0000000000000000        0x0 build_mx8qx_b0/ss/mipi/v2/ss.o
 .text          0x0000000000000000        0x0 build_mx8qx_b0/ss/pi/v1/ss.o
 .data          0x0000000000000000        0x0 build_mx8qx_b0/ss/pi/v1/ss.o
 .bss           0x0000000000000000        0x0 build_mx8qx_b0/ss/pi/v1/ss.o
 .text          0x0000000000000000        0x0 build_mx8qx_b0/board/mx8qx_mek/board.o
 .data          0x0000000000000000        0x0 build_mx8qx_b0/board/mx8qx_mek/board.o
 .bss           0x0000000000000000        0x0 build_mx8qx_b0/board/mx8qx_mek/board.o
 .text          0x0000000000000000        0x0 build_mx8qx_b0/board/board_common.o
 .data          0x0000000000000000        0x0 build_mx8qx_b0/board/board_common.o
 .bss           0x0000000000000000        0x0 build_mx8qx_b0/board/board_common.o
 .bss.test_all  0x0000000000000000        0x1 build_mx8qx_b0/board/board_common.o
 .data          0x0000000000000000        0x0 build_mx8qx_b0/board/board.o
 .bss           0x0000000000000000        0x0 build_mx8qx_b0/board/board.o
 .text          0x0000000000000000        0x0 build_mx8qx_b0/board/pmic.o
 .data          0x0000000000000000        0x0 build_mx8qx_b0/board/pmic.o
 .bss           0x0000000000000000        0x0 build_mx8qx_b0/board/pmic.o
 .text.dynamic_pmic_set_voltage
                0x0000000000000000       0x54 build_mx8qx_b0/board/pmic.o
 .text.dynamic_pmic_set_mode
                0x0000000000000000       0x4c build_mx8qx_b0/board/pmic.o
 .text.dynamic_pmic_get_mode
                0x0000000000000000       0x38 build_mx8qx_b0/board/pmic.o
 .text.dynamic_pmic_irq_service
                0x0000000000000000       0x3c build_mx8qx_b0/board/pmic.o
 .text.dynamic_get_pmic_version
                0x0000000000000000       0x48 build_mx8qx_b0/board/pmic.o
 .text.dynamic_get_pmic_temp
                0x0000000000000000       0x3c build_mx8qx_b0/board/pmic.o
 .text.dynamic_set_pmic_temp_alarm
                0x0000000000000000       0x48 build_mx8qx_b0/board/pmic.o
 .text          0x0000000000000000        0x0 build_mx8qx_b0/svc/irq/svc.o
 .data          0x0000000000000000        0x0 build_mx8qx_b0/svc/irq/svc.o
 .bss           0x0000000000000000        0x0 build_mx8qx_b0/svc/irq/svc.o
 .text          0x0000000000000000        0x0 build_mx8qx_b0/svc/misc/svc.o
 .data          0x0000000000000000        0x0 build_mx8qx_b0/svc/misc/svc.o
 .bss           0x0000000000000000        0x0 build_mx8qx_b0/svc/misc/svc.o
 .text          0x0000000000000000        0x0 build_mx8qx_b0/svc/pad/svc.o
 .data          0x0000000000000000        0x0 build_mx8qx_b0/svc/pad/svc.o
 .bss           0x0000000000000000        0x0 build_mx8qx_b0/svc/pad/svc.o
 .text          0x0000000000000000        0x0 build_mx8qx_b0/svc/pm/svc.o
 .data          0x0000000000000000        0x0 build_mx8qx_b0/svc/pm/svc.o
 .bss           0x0000000000000000        0x0 build_mx8qx_b0/svc/pm/svc.o
 .text.pm_is_resource_accessible
                0x0000000000000000       0x1e build_mx8qx_b0/svc/pm/svc.o
 .text.pm_get_booted
                0x0000000000000000       0x14 build_mx8qx_b0/svc/pm/svc.o
 .text          0x0000000000000000        0x0 build_mx8qx_b0/svc/rm/svc.o
 .data          0x0000000000000000        0x0 build_mx8qx_b0/svc/rm/svc.o
 .bss           0x0000000000000000        0x0 build_mx8qx_b0/svc/rm/svc.o
 .text.rm_is_secure_partition
                0x0000000000000000       0x18 build_mx8qx_b0/svc/rm/svc.o
 .text.rm_set_memreg_iee
                0x0000000000000000       0x40 build_mx8qx_b0/svc/rm/svc.o
 .text          0x0000000000000000        0x0 build_mx8qx_b0/svc/timer/svc.o
 .data          0x0000000000000000        0x0 build_mx8qx_b0/svc/timer/svc.o
 .bss           0x0000000000000000        0x0 build_mx8qx_b0/svc/timer/svc.o
 .text          0x0000000000000000        0x0 build_mx8qx_b0/svc/irq/rpc_srv.o
 .data          0x0000000000000000        0x0 build_mx8qx_b0/svc/irq/rpc_srv.o
 .bss           0x0000000000000000        0x0 build_mx8qx_b0/svc/irq/rpc_srv.o
 .text          0x0000000000000000        0x0 build_mx8qx_b0/svc/misc/rpc_srv.o
 .data          0x0000000000000000        0x0 build_mx8qx_b0/svc/misc/rpc_srv.o
 .bss           0x0000000000000000        0x0 build_mx8qx_b0/svc/misc/rpc_srv.o
 .text          0x0000000000000000        0x0 build_mx8qx_b0/svc/pad/rpc_srv.o
 .data          0x0000000000000000        0x0 build_mx8qx_b0/svc/pad/rpc_srv.o
 .bss           0x0000000000000000        0x0 build_mx8qx_b0/svc/pad/rpc_srv.o
 .text          0x0000000000000000        0x0 build_mx8qx_b0/svc/pm/rpc_srv.o
 .data          0x0000000000000000        0x0 build_mx8qx_b0/svc/pm/rpc_srv.o
 .bss           0x0000000000000000        0x0 build_mx8qx_b0/svc/pm/rpc_srv.o
 .text          0x0000000000000000        0x0 build_mx8qx_b0/svc/rm/rpc_srv.o
 .data          0x0000000000000000        0x0 build_mx8qx_b0/svc/rm/rpc_srv.o
 .bss           0x0000000000000000        0x0 build_mx8qx_b0/svc/rm/rpc_srv.o
 .text          0x0000000000000000        0x0 build_mx8qx_b0/svc/timer/rpc_srv.o
 .data          0x0000000000000000        0x0 build_mx8qx_b0/svc/timer/rpc_srv.o
 .bss           0x0000000000000000        0x0 build_mx8qx_b0/svc/timer/rpc_srv.o
 .text          0x0000000000000000        0x0 build_mx8qx_b0/svc/irq/rpc_clnt.o
 .data          0x0000000000000000        0x0 build_mx8qx_b0/svc/irq/rpc_clnt.o
 .bss           0x0000000000000000        0x0 build_mx8qx_b0/svc/irq/rpc_clnt.o
 .text.sc_irq_enable
                0x0000000000000000       0x3c build_mx8qx_b0/svc/irq/rpc_clnt.o
 .text.sc_irq_status
                0x0000000000000000       0x3a build_mx8qx_b0/svc/irq/rpc_clnt.o
 .debug_info    0x0000000000000000      0xb91 build_mx8qx_b0/svc/irq/rpc_clnt.o
 .debug_abbrev  0x0000000000000000      0x22b build_mx8qx_b0/svc/irq/rpc_clnt.o
 .debug_loc     0x0000000000000000      0x141 build_mx8qx_b0/svc/irq/rpc_clnt.o
 .debug_aranges
                0x0000000000000000       0x28 build_mx8qx_b0/svc/irq/rpc_clnt.o
 .debug_ranges  0x0000000000000000       0x18 build_mx8qx_b0/svc/irq/rpc_clnt.o
 .debug_line    0x0000000000000000      0x2d7 build_mx8qx_b0/svc/irq/rpc_clnt.o
 .debug_str     0x0000000000000000      0x702 build_mx8qx_b0/svc/irq/rpc_clnt.o
 .comment       0x0000000000000000       0x80 build_mx8qx_b0/svc/irq/rpc_clnt.o
 .debug_frame   0x0000000000000000       0x50 build_mx8qx_b0/svc/irq/rpc_clnt.o
 .ARM.attributes
                0x0000000000000000       0x35 build_mx8qx_b0/svc/irq/rpc_clnt.o
 .text          0x0000000000000000        0x0 build_mx8qx_b0/svc/misc/rpc_clnt.o
 .data          0x0000000000000000        0x0 build_mx8qx_b0/svc/misc/rpc_clnt.o
 .bss           0x0000000000000000        0x0 build_mx8qx_b0/svc/misc/rpc_clnt.o
 .text.sc_misc_set_control
                0x0000000000000000       0x32 build_mx8qx_b0/svc/misc/rpc_clnt.o
 .text.sc_misc_get_control
                0x0000000000000000       0x3a build_mx8qx_b0/svc/misc/rpc_clnt.o
 .text.sc_misc_set_max_dma_group
                0x0000000000000000       0x36 build_mx8qx_b0/svc/misc/rpc_clnt.o
 .text.sc_misc_set_dma_group
                0x0000000000000000       0x36 build_mx8qx_b0/svc/misc/rpc_clnt.o
 .text.sc_misc_seco_image_load
                0x0000000000000000       0x42 build_mx8qx_b0/svc/misc/rpc_clnt.o
 .text.sc_misc_seco_authenticate
                0x0000000000000000       0x34 build_mx8qx_b0/svc/misc/rpc_clnt.o
 .text.sc_misc_seco_fuse_write
                0x0000000000000000       0x32 build_mx8qx_b0/svc/misc/rpc_clnt.o
 .text.sc_misc_seco_enable_debug
                0x0000000000000000       0x32 build_mx8qx_b0/svc/misc/rpc_clnt.o
 .text.sc_misc_seco_forward_lifecycle
                0x0000000000000000       0x30 build_mx8qx_b0/svc/misc/rpc_clnt.o
 .text.sc_misc_seco_return_lifecycle
                0x0000000000000000       0x32 build_mx8qx_b0/svc/misc/rpc_clnt.o
 .text.sc_misc_seco_build_info
                0x0000000000000000       0x36 build_mx8qx_b0/svc/misc/rpc_clnt.o
 .text.sc_misc_seco_chip_info
                0x0000000000000000       0x4e build_mx8qx_b0/svc/misc/rpc_clnt.o
 .text.sc_misc_seco_attest_mode
                0x0000000000000000       0x30 build_mx8qx_b0/svc/misc/rpc_clnt.o
 .text.sc_misc_seco_attest
                0x0000000000000000       0x32 build_mx8qx_b0/svc/misc/rpc_clnt.o
 .text.sc_misc_seco_get_attest_pkey
                0x0000000000000000       0x32 build_mx8qx_b0/svc/misc/rpc_clnt.o
 .text.sc_misc_seco_get_attest_sign
                0x0000000000000000       0x32 build_mx8qx_b0/svc/misc/rpc_clnt.o
 .text.sc_misc_seco_attest_verify
                0x0000000000000000       0x32 build_mx8qx_b0/svc/misc/rpc_clnt.o
 .text.sc_misc_seco_commit
                0x0000000000000000       0x36 build_mx8qx_b0/svc/misc/rpc_clnt.o
 .text.sc_misc_debug_out
                0x0000000000000000       0x2e build_mx8qx_b0/svc/misc/rpc_clnt.o
 .text.sc_misc_waveform_capture
                0x0000000000000000       0x32 build_mx8qx_b0/svc/misc/rpc_clnt.o
 .text.sc_misc_build_info
                0x0000000000000000       0x36 build_mx8qx_b0/svc/misc/rpc_clnt.o
 .text.sc_misc_unique_id
                0x0000000000000000       0x36 build_mx8qx_b0/svc/misc/rpc_clnt.o
 .text.sc_misc_set_ari
                0x0000000000000000       0x3e build_mx8qx_b0/svc/misc/rpc_clnt.o
 .text.sc_misc_boot_status
                0x0000000000000000       0x2a build_mx8qx_b0/svc/misc/rpc_clnt.o
 .text.sc_misc_boot_done
                0x0000000000000000       0x32 build_mx8qx_b0/svc/misc/rpc_clnt.o
 .text.sc_misc_otp_fuse_read
                0x0000000000000000       0x36 build_mx8qx_b0/svc/misc/rpc_clnt.o
 .text.sc_misc_otp_fuse_write
                0x0000000000000000       0x32 build_mx8qx_b0/svc/misc/rpc_clnt.o
 .text.sc_misc_set_temp
                0x0000000000000000       0x40 build_mx8qx_b0/svc/misc/rpc_clnt.o
 .text.sc_misc_get_temp
                0x0000000000000000       0x48 build_mx8qx_b0/svc/misc/rpc_clnt.o
 .text.sc_misc_get_boot_dev
                0x0000000000000000       0x30 build_mx8qx_b0/svc/misc/rpc_clnt.o
 .text.sc_misc_get_boot_type
                0x0000000000000000       0x34 build_mx8qx_b0/svc/misc/rpc_clnt.o
 .text.sc_misc_get_button_status
                0x0000000000000000       0x30 build_mx8qx_b0/svc/misc/rpc_clnt.o
 .text.sc_misc_rompatch_checksum
                0x0000000000000000       0x32 build_mx8qx_b0/svc/misc/rpc_clnt.o
 .debug_info    0x0000000000000000     0x1adc build_mx8qx_b0/svc/misc/rpc_clnt.o
 .debug_abbrev  0x0000000000000000      0x2bb build_mx8qx_b0/svc/misc/rpc_clnt.o
 .debug_loc     0x0000000000000000      0xc4e build_mx8qx_b0/svc/misc/rpc_clnt.o
 .debug_aranges
                0x0000000000000000      0x120 build_mx8qx_b0/svc/misc/rpc_clnt.o
 .debug_ranges  0x0000000000000000      0x110 build_mx8qx_b0/svc/misc/rpc_clnt.o
 .debug_line    0x0000000000000000      0x6c6 build_mx8qx_b0/svc/misc/rpc_clnt.o
 .debug_str     0x0000000000000000      0xae0 build_mx8qx_b0/svc/misc/rpc_clnt.o
 .comment       0x0000000000000000       0x80 build_mx8qx_b0/svc/misc/rpc_clnt.o
 .debug_frame   0x0000000000000000      0x3f4 build_mx8qx_b0/svc/misc/rpc_clnt.o
 .ARM.attributes
                0x0000000000000000       0x35 build_mx8qx_b0/svc/misc/rpc_clnt.o
 .text          0x0000000000000000        0x0 build_mx8qx_b0/svc/pad/rpc_clnt.o
 .data          0x0000000000000000        0x0 build_mx8qx_b0/svc/pad/rpc_clnt.o
 .bss           0x0000000000000000        0x0 build_mx8qx_b0/svc/pad/rpc_clnt.o
 .text.sc_pad_set_mux
                0x0000000000000000       0x3e build_mx8qx_b0/svc/pad/rpc_clnt.o
 .text.sc_pad_get_mux
                0x0000000000000000       0x4c build_mx8qx_b0/svc/pad/rpc_clnt.o
 .text.sc_pad_set_gp
                0x0000000000000000       0x34 build_mx8qx_b0/svc/pad/rpc_clnt.o
 .text.sc_pad_get_gp
                0x0000000000000000       0x38 build_mx8qx_b0/svc/pad/rpc_clnt.o
 .text.sc_pad_set_wakeup
                0x0000000000000000       0x36 build_mx8qx_b0/svc/pad/rpc_clnt.o
 .text.sc_pad_get_wakeup
                0x0000000000000000       0x3a build_mx8qx_b0/svc/pad/rpc_clnt.o
 .text.sc_pad_set_all
                0x0000000000000000       0x4c build_mx8qx_b0/svc/pad/rpc_clnt.o
 .text.sc_pad_get_all
                0x0000000000000000       0x6c build_mx8qx_b0/svc/pad/rpc_clnt.o
 .text.sc_pad_set
                0x0000000000000000       0x34 build_mx8qx_b0/svc/pad/rpc_clnt.o
 .text.sc_pad_get
                0x0000000000000000       0x38 build_mx8qx_b0/svc/pad/rpc_clnt.o
 .text.sc_pad_set_gp_28fdsoi
                0x0000000000000000       0x38 build_mx8qx_b0/svc/pad/rpc_clnt.o
 .text.sc_pad_get_gp_28fdsoi
                0x0000000000000000       0x44 build_mx8qx_b0/svc/pad/rpc_clnt.o
 .text.sc_pad_set_gp_28fdsoi_hsic
                0x0000000000000000       0x4e build_mx8qx_b0/svc/pad/rpc_clnt.o
 .text.sc_pad_get_gp_28fdsoi_hsic
                0x0000000000000000       0x6c build_mx8qx_b0/svc/pad/rpc_clnt.o
 .text.sc_pad_set_gp_28fdsoi_comp
                0x0000000000000000       0x58 build_mx8qx_b0/svc/pad/rpc_clnt.o
 .text.sc_pad_get_gp_28fdsoi_comp
                0x0000000000000000       0xa2 build_mx8qx_b0/svc/pad/rpc_clnt.o
 .debug_info    0x0000000000000000     0x14e3 build_mx8qx_b0/svc/pad/rpc_clnt.o
 .debug_abbrev  0x0000000000000000      0x2b0 build_mx8qx_b0/svc/pad/rpc_clnt.o
 .debug_loc     0x0000000000000000      0x8b0 build_mx8qx_b0/svc/pad/rpc_clnt.o
 .debug_aranges
                0x0000000000000000       0x98 build_mx8qx_b0/svc/pad/rpc_clnt.o
 .debug_ranges  0x0000000000000000       0x88 build_mx8qx_b0/svc/pad/rpc_clnt.o
 .debug_line    0x0000000000000000      0x4dd build_mx8qx_b0/svc/pad/rpc_clnt.o
 .debug_str     0x0000000000000000      0x898 build_mx8qx_b0/svc/pad/rpc_clnt.o
 .comment       0x0000000000000000       0x80 build_mx8qx_b0/svc/pad/rpc_clnt.o
 .debug_frame   0x0000000000000000      0x224 build_mx8qx_b0/svc/pad/rpc_clnt.o
 .ARM.attributes
                0x0000000000000000       0x35 build_mx8qx_b0/svc/pad/rpc_clnt.o
 .text          0x0000000000000000        0x0 build_mx8qx_b0/svc/pm/rpc_clnt.o
 .data          0x0000000000000000        0x0 build_mx8qx_b0/svc/pm/rpc_clnt.o
 .bss           0x0000000000000000        0x0 build_mx8qx_b0/svc/pm/rpc_clnt.o
 .text.sc_pm_set_sys_power_mode
                0x0000000000000000       0x30 build_mx8qx_b0/svc/pm/rpc_clnt.o
 .text.sc_pm_set_partition_power_mode
                0x0000000000000000       0x30 build_mx8qx_b0/svc/pm/rpc_clnt.o
 .text.sc_pm_get_sys_power_mode
                0x0000000000000000       0x36 build_mx8qx_b0/svc/pm/rpc_clnt.o
 .text.sc_pm_set_resource_power_mode
                0x0000000000000000       0x32 build_mx8qx_b0/svc/pm/rpc_clnt.o
 .text.sc_pm_set_resource_power_mode_all
                0x0000000000000000       0x36 build_mx8qx_b0/svc/pm/rpc_clnt.o
 .text.sc_pm_get_resource_power_mode
                0x0000000000000000       0x38 build_mx8qx_b0/svc/pm/rpc_clnt.o
 .text.sc_pm_req_low_power_mode
                0x0000000000000000       0x32 build_mx8qx_b0/svc/pm/rpc_clnt.o
 .text.sc_pm_req_cpu_low_power_mode
                0x0000000000000000       0x36 build_mx8qx_b0/svc/pm/rpc_clnt.o
 .text.sc_pm_set_cpu_resume_addr
                0x0000000000000000       0x34 build_mx8qx_b0/svc/pm/rpc_clnt.o
 .text.sc_pm_set_cpu_resume
                0x0000000000000000       0x3e build_mx8qx_b0/svc/pm/rpc_clnt.o
 .text.sc_pm_req_sys_if_power_mode
                0x0000000000000000       0x40 build_mx8qx_b0/svc/pm/rpc_clnt.o
 .text.sc_pm_set_clock_rate
                0x0000000000000000       0x3e build_mx8qx_b0/svc/pm/rpc_clnt.o
 .text.sc_pm_get_clock_rate
                0x0000000000000000       0x3a build_mx8qx_b0/svc/pm/rpc_clnt.o
 .text.sc_pm_clock_enable
                0x0000000000000000       0x40 build_mx8qx_b0/svc/pm/rpc_clnt.o
 .text.sc_pm_set_clock_parent
                0x0000000000000000       0x36 build_mx8qx_b0/svc/pm/rpc_clnt.o
 .text.sc_pm_get_clock_parent
                0x0000000000000000       0x3c build_mx8qx_b0/svc/pm/rpc_clnt.o
 .text.sc_pm_reset
                0x0000000000000000       0x30 build_mx8qx_b0/svc/pm/rpc_clnt.o
 .text.sc_pm_reset_reason
                0x0000000000000000       0x34 build_mx8qx_b0/svc/pm/rpc_clnt.o
 .text.sc_pm_boot
                0x0000000000000000       0x4e build_mx8qx_b0/svc/pm/rpc_clnt.o
 .text.sc_pm_reboot
                0x0000000000000000       0x28 build_mx8qx_b0/svc/pm/rpc_clnt.o
 .text.sc_pm_reboot_partition
                0x0000000000000000       0x32 build_mx8qx_b0/svc/pm/rpc_clnt.o
 .text.sc_pm_cpu_start
                0x0000000000000000       0x3e build_mx8qx_b0/svc/pm/rpc_clnt.o
 .debug_info    0x0000000000000000     0x16a7 build_mx8qx_b0/svc/pm/rpc_clnt.o
 .debug_abbrev  0x0000000000000000      0x2bb build_mx8qx_b0/svc/pm/rpc_clnt.o
 .debug_loc     0x0000000000000000      0xac3 build_mx8qx_b0/svc/pm/rpc_clnt.o
 .debug_aranges
                0x0000000000000000       0xc8 build_mx8qx_b0/svc/pm/rpc_clnt.o
 .debug_ranges  0x0000000000000000       0xb8 build_mx8qx_b0/svc/pm/rpc_clnt.o
 .debug_line    0x0000000000000000      0x593 build_mx8qx_b0/svc/pm/rpc_clnt.o
 .debug_str     0x0000000000000000      0x9e6 build_mx8qx_b0/svc/pm/rpc_clnt.o
 .comment       0x0000000000000000       0x80 build_mx8qx_b0/svc/pm/rpc_clnt.o
 .debug_frame   0x0000000000000000      0x2bc build_mx8qx_b0/svc/pm/rpc_clnt.o
 .ARM.attributes
                0x0000000000000000       0x35 build_mx8qx_b0/svc/pm/rpc_clnt.o
 .text          0x0000000000000000        0x0 build_mx8qx_b0/svc/rm/rpc_clnt.o
 .data          0x0000000000000000        0x0 build_mx8qx_b0/svc/rm/rpc_clnt.o
 .bss           0x0000000000000000        0x0 build_mx8qx_b0/svc/rm/rpc_clnt.o
 .text.sc_rm_partition_alloc
                0x0000000000000000       0x52 build_mx8qx_b0/svc/rm/rpc_clnt.o
 .text.sc_rm_set_confidential
                0x0000000000000000       0x36 build_mx8qx_b0/svc/rm/rpc_clnt.o
 .text.sc_rm_partition_free
                0x0000000000000000       0x30 build_mx8qx_b0/svc/rm/rpc_clnt.o
 .text.sc_rm_get_did
                0x0000000000000000       0x2c build_mx8qx_b0/svc/rm/rpc_clnt.o
 .text.sc_rm_partition_static
                0x0000000000000000       0x34 build_mx8qx_b0/svc/rm/rpc_clnt.o
 .text.sc_rm_partition_lock
                0x0000000000000000       0x32 build_mx8qx_b0/svc/rm/rpc_clnt.o
 .text.sc_rm_get_partition
                0x0000000000000000       0x34 build_mx8qx_b0/svc/rm/rpc_clnt.o
 .text.sc_rm_set_parent
                0x0000000000000000       0x36 build_mx8qx_b0/svc/rm/rpc_clnt.o
 .text.sc_rm_move_all
                0x0000000000000000       0x40 build_mx8qx_b0/svc/rm/rpc_clnt.o
 .text.sc_rm_assign_resource
                0x0000000000000000       0x36 build_mx8qx_b0/svc/rm/rpc_clnt.o
 .text.sc_rm_set_resource_movable
                0x0000000000000000       0x36 build_mx8qx_b0/svc/rm/rpc_clnt.o
 .text.sc_rm_set_subsys_rsrc_movable
                0x0000000000000000       0x36 build_mx8qx_b0/svc/rm/rpc_clnt.o
 .text.sc_rm_set_master_attributes
                0x0000000000000000       0x3e build_mx8qx_b0/svc/rm/rpc_clnt.o
 .text.sc_rm_set_master_sid
                0x0000000000000000       0x36 build_mx8qx_b0/svc/rm/rpc_clnt.o
 .text.sc_rm_set_peripheral_permissions
                0x0000000000000000       0x38 build_mx8qx_b0/svc/rm/rpc_clnt.o
 .text.sc_rm_is_resource_owned
                0x0000000000000000       0x32 build_mx8qx_b0/svc/rm/rpc_clnt.o
 .text.sc_rm_is_resource_master
                0x0000000000000000       0x32 build_mx8qx_b0/svc/rm/rpc_clnt.o
 .text.sc_rm_is_resource_peripheral
                0x0000000000000000       0x32 build_mx8qx_b0/svc/rm/rpc_clnt.o
 .text.sc_rm_get_resource_info
                0x0000000000000000       0x3a build_mx8qx_b0/svc/rm/rpc_clnt.o
 .text.sc_rm_memreg_alloc
                0x0000000000000000       0x42 build_mx8qx_b0/svc/rm/rpc_clnt.o
 .text.sc_rm_memreg_split
                0x0000000000000000       0x4a build_mx8qx_b0/svc/rm/rpc_clnt.o
 .text.sc_rm_memreg_free
                0x0000000000000000       0x32 build_mx8qx_b0/svc/rm/rpc_clnt.o
 .text.sc_rm_find_memreg
                0x0000000000000000       0x42 build_mx8qx_b0/svc/rm/rpc_clnt.o
 .text.sc_rm_assign_memreg
                0x0000000000000000       0x36 build_mx8qx_b0/svc/rm/rpc_clnt.o
 .text.sc_rm_set_memreg_permissions
                0x0000000000000000       0x38 build_mx8qx_b0/svc/rm/rpc_clnt.o
 .text.sc_rm_is_memreg_owned
                0x0000000000000000       0x32 build_mx8qx_b0/svc/rm/rpc_clnt.o
 .text.sc_rm_get_memreg_info
                0x0000000000000000       0x50 build_mx8qx_b0/svc/rm/rpc_clnt.o
 .text.sc_rm_assign_pad
                0x0000000000000000       0x36 build_mx8qx_b0/svc/rm/rpc_clnt.o
 .text.sc_rm_set_pad_movable
                0x0000000000000000       0x36 build_mx8qx_b0/svc/rm/rpc_clnt.o
 .text.sc_rm_is_pad_owned
                0x0000000000000000       0x32 build_mx8qx_b0/svc/rm/rpc_clnt.o
 .text.sc_rm_dump
                0x0000000000000000       0x28 build_mx8qx_b0/svc/rm/rpc_clnt.o
 .debug_info    0x0000000000000000     0x1aba build_mx8qx_b0/svc/rm/rpc_clnt.o
 .debug_abbrev  0x0000000000000000      0x2ac build_mx8qx_b0/svc/rm/rpc_clnt.o
 .debug_loc     0x0000000000000000      0xd5e build_mx8qx_b0/svc/rm/rpc_clnt.o
 .debug_aranges
                0x0000000000000000      0x110 build_mx8qx_b0/svc/rm/rpc_clnt.o
 .debug_ranges  0x0000000000000000      0x100 build_mx8qx_b0/svc/rm/rpc_clnt.o
 .debug_line    0x0000000000000000      0x614 build_mx8qx_b0/svc/rm/rpc_clnt.o
 .debug_str     0x0000000000000000      0xa7e build_mx8qx_b0/svc/rm/rpc_clnt.o
 .comment       0x0000000000000000       0x80 build_mx8qx_b0/svc/rm/rpc_clnt.o
 .debug_frame   0x0000000000000000      0x3a8 build_mx8qx_b0/svc/rm/rpc_clnt.o
 .ARM.attributes
                0x0000000000000000       0x35 build_mx8qx_b0/svc/rm/rpc_clnt.o
 .text          0x0000000000000000        0x0 build_mx8qx_b0/svc/timer/rpc_clnt.o
 .data          0x0000000000000000        0x0 build_mx8qx_b0/svc/timer/rpc_clnt.o
 .bss           0x0000000000000000        0x0 build_mx8qx_b0/svc/timer/rpc_clnt.o
 .text.sc_timer_set_wdog_timeout
                0x0000000000000000       0x2e build_mx8qx_b0/svc/timer/rpc_clnt.o
 .text.sc_timer_set_wdog_pre_timeout
                0x0000000000000000       0x30 build_mx8qx_b0/svc/timer/rpc_clnt.o
 .text.sc_timer_start_wdog
                0x0000000000000000       0x30 build_mx8qx_b0/svc/timer/rpc_clnt.o
 .text.sc_timer_stop_wdog
                0x0000000000000000       0x2c build_mx8qx_b0/svc/timer/rpc_clnt.o
 .text.sc_timer_ping_wdog
                0x0000000000000000       0x2c build_mx8qx_b0/svc/timer/rpc_clnt.o
 .text.sc_timer_get_wdog_status
                0x0000000000000000       0x40 build_mx8qx_b0/svc/timer/rpc_clnt.o
 .text.sc_timer_pt_get_wdog_status
                0x0000000000000000       0x4a build_mx8qx_b0/svc/timer/rpc_clnt.o
 .text.sc_timer_set_wdog_action
                0x0000000000000000       0x36 build_mx8qx_b0/svc/timer/rpc_clnt.o
 .text.sc_timer_set_rtc_time
                0x0000000000000000       0x50 build_mx8qx_b0/svc/timer/rpc_clnt.o
 .text.sc_timer_get_rtc_time
                0x0000000000000000       0x76 build_mx8qx_b0/svc/timer/rpc_clnt.o
 .text.sc_timer_get_rtc_sec1970
                0x0000000000000000       0x32 build_mx8qx_b0/svc/timer/rpc_clnt.o
 .text.sc_timer_set_rtc_alarm
                0x0000000000000000       0x50 build_mx8qx_b0/svc/timer/rpc_clnt.o
 .text.sc_timer_set_rtc_periodic_alarm
                0x0000000000000000       0x30 build_mx8qx_b0/svc/timer/rpc_clnt.o
 .text.sc_timer_cancel_rtc_alarm
                0x0000000000000000       0x2c build_mx8qx_b0/svc/timer/rpc_clnt.o
 .text.sc_timer_set_rtc_calb
                0x0000000000000000       0x32 build_mx8qx_b0/svc/timer/rpc_clnt.o
 .text.sc_timer_set_sysctr_alarm
                0x0000000000000000       0x32 build_mx8qx_b0/svc/timer/rpc_clnt.o
 .text.sc_timer_set_sysctr_periodic_alarm
                0x0000000000000000       0x32 build_mx8qx_b0/svc/timer/rpc_clnt.o
 .text.sc_timer_cancel_sysctr_alarm
                0x0000000000000000       0x2c build_mx8qx_b0/svc/timer/rpc_clnt.o
 .debug_info    0x0000000000000000     0x139a build_mx8qx_b0/svc/timer/rpc_clnt.o
 .debug_abbrev  0x0000000000000000      0x2b0 build_mx8qx_b0/svc/timer/rpc_clnt.o
 .debug_loc     0x0000000000000000      0x626 build_mx8qx_b0/svc/timer/rpc_clnt.o
 .debug_aranges
                0x0000000000000000       0xa8 build_mx8qx_b0/svc/timer/rpc_clnt.o
 .debug_ranges  0x0000000000000000       0x98 build_mx8qx_b0/svc/timer/rpc_clnt.o
 .debug_line    0x0000000000000000      0x524 build_mx8qx_b0/svc/timer/rpc_clnt.o
 .debug_str     0x0000000000000000      0x904 build_mx8qx_b0/svc/timer/rpc_clnt.o
 .comment       0x0000000000000000       0x80 build_mx8qx_b0/svc/timer/rpc_clnt.o
 .debug_frame   0x0000000000000000      0x230 build_mx8qx_b0/svc/timer/rpc_clnt.o
 .ARM.attributes
                0x0000000000000000       0x35 build_mx8qx_b0/svc/timer/rpc_clnt.o
 .text          0x0000000000000000        0x0 /home/jalcim/gcc_toolchain/gcc-arm-none-eabi-7-2018-q2-update/bin/../lib/gcc/arm-none-eabi/7.3.1/../../../../arm-none-eabi/lib/thumb/v7e-m/fpv4-sp/softfp/libc_nano.a(lib_a-assert.o)
 .data          0x0000000000000000        0x0 /home/jalcim/gcc_toolchain/gcc-arm-none-eabi-7-2018-q2-update/bin/../lib/gcc/arm-none-eabi/7.3.1/../../../../arm-none-eabi/lib/thumb/v7e-m/fpv4-sp/softfp/libc_nano.a(lib_a-assert.o)
 .bss           0x0000000000000000        0x0 /home/jalcim/gcc_toolchain/gcc-arm-none-eabi-7-2018-q2-update/bin/../lib/gcc/arm-none-eabi/7.3.1/../../../../arm-none-eabi/lib/thumb/v7e-m/fpv4-sp/softfp/libc_nano.a(lib_a-assert.o)
 .text.__assert
                0x0000000000000000        0xa /home/jalcim/gcc_toolchain/gcc-arm-none-eabi-7-2018-q2-update/bin/../lib/gcc/arm-none-eabi/7.3.1/../../../../arm-none-eabi/lib/thumb/v7e-m/fpv4-sp/softfp/libc_nano.a(lib_a-assert.o)
 .text          0x0000000000000000        0x0 /home/jalcim/gcc_toolchain/gcc-arm-none-eabi-7-2018-q2-update/bin/../lib/gcc/arm-none-eabi/7.3.1/../../../../arm-none-eabi/lib/thumb/v7e-m/fpv4-sp/softfp/libc_nano.a(lib_a-errno.o)
 .data          0x0000000000000000        0x0 /home/jalcim/gcc_toolchain/gcc-arm-none-eabi-7-2018-q2-update/bin/../lib/gcc/arm-none-eabi/7.3.1/../../../../arm-none-eabi/lib/thumb/v7e-m/fpv4-sp/softfp/libc_nano.a(lib_a-errno.o)
 .bss           0x0000000000000000        0x0 /home/jalcim/gcc_toolchain/gcc-arm-none-eabi-7-2018-q2-update/bin/../lib/gcc/arm-none-eabi/7.3.1/../../../../arm-none-eabi/lib/thumb/v7e-m/fpv4-sp/softfp/libc_nano.a(lib_a-errno.o)
 .text          0x0000000000000000        0x0 /home/jalcim/gcc_toolchain/gcc-arm-none-eabi-7-2018-q2-update/bin/../lib/gcc/arm-none-eabi/7.3.1/../../../../arm-none-eabi/lib/thumb/v7e-m/fpv4-sp/softfp/libc_nano.a(lib_a-exit.o)
 .data          0x0000000000000000        0x0 /home/jalcim/gcc_toolchain/gcc-arm-none-eabi-7-2018-q2-update/bin/../lib/gcc/arm-none-eabi/7.3.1/../../../../arm-none-eabi/lib/thumb/v7e-m/fpv4-sp/softfp/libc_nano.a(lib_a-exit.o)
 .bss           0x0000000000000000        0x0 /home/jalcim/gcc_toolchain/gcc-arm-none-eabi-7-2018-q2-update/bin/../lib/gcc/arm-none-eabi/7.3.1/../../../../arm-none-eabi/lib/thumb/v7e-m/fpv4-sp/softfp/libc_nano.a(lib_a-exit.o)
 .text          0x0000000000000000        0x0 /home/jalcim/gcc_toolchain/gcc-arm-none-eabi-7-2018-q2-update/bin/../lib/gcc/arm-none-eabi/7.3.1/../../../../arm-none-eabi/lib/thumb/v7e-m/fpv4-sp/softfp/libc_nano.a(lib_a-fgets.o)
 .data          0x0000000000000000        0x0 /home/jalcim/gcc_toolchain/gcc-arm-none-eabi-7-2018-q2-update/bin/../lib/gcc/arm-none-eabi/7.3.1/../../../../arm-none-eabi/lib/thumb/v7e-m/fpv4-sp/softfp/libc_nano.a(lib_a-fgets.o)
 .bss           0x0000000000000000        0x0 /home/jalcim/gcc_toolchain/gcc-arm-none-eabi-7-2018-q2-update/bin/../lib/gcc/arm-none-eabi/7.3.1/../../../../arm-none-eabi/lib/thumb/v7e-m/fpv4-sp/softfp/libc_nano.a(lib_a-fgets.o)
 .text          0x0000000000000000        0x0 /home/jalcim/gcc_toolchain/gcc-arm-none-eabi-7-2018-q2-update/bin/../lib/gcc/arm-none-eabi/7.3.1/../../../../arm-none-eabi/lib/thumb/v7e-m/fpv4-sp/softfp/libc_nano.a(lib_a-findfp.o)
 .data          0x0000000000000000        0x0 /home/jalcim/gcc_toolchain/gcc-arm-none-eabi-7-2018-q2-update/bin/../lib/gcc/arm-none-eabi/7.3.1/../../../../arm-none-eabi/lib/thumb/v7e-m/fpv4-sp/softfp/libc_nano.a(lib_a-findfp.o)
 .bss           0x0000000000000000        0x0 /home/jalcim/gcc_toolchain/gcc-arm-none-eabi-7-2018-q2-update/bin/../lib/gcc/arm-none-eabi/7.3.1/../../../../arm-none-eabi/lib/thumb/v7e-m/fpv4-sp/softfp/libc_nano.a(lib_a-findfp.o)
 .text.__fp_lock
                0x0000000000000000        0x4 /home/jalcim/gcc_toolchain/gcc-arm-none-eabi-7-2018-q2-update/bin/../lib/gcc/arm-none-eabi/7.3.1/../../../../arm-none-eabi/lib/thumb/v7e-m/fpv4-sp/softfp/libc_nano.a(lib_a-findfp.o)
 .text.__fp_unlock
                0x0000000000000000        0x4 /home/jalcim/gcc_toolchain/gcc-arm-none-eabi-7-2018-q2-update/bin/../lib/gcc/arm-none-eabi/7.3.1/../../../../arm-none-eabi/lib/thumb/v7e-m/fpv4-sp/softfp/libc_nano.a(lib_a-findfp.o)
 .text._cleanup
                0x0000000000000000        0xc /home/jalcim/gcc_toolchain/gcc-arm-none-eabi-7-2018-q2-update/bin/../lib/gcc/arm-none-eabi/7.3.1/../../../../arm-none-eabi/lib/thumb/v7e-m/fpv4-sp/softfp/libc_nano.a(lib_a-findfp.o)
 .text.__sfp_lock_acquire
                0x0000000000000000        0x2 /home/jalcim/gcc_toolchain/gcc-arm-none-eabi-7-2018-q2-update/bin/../lib/gcc/arm-none-eabi/7.3.1/../../../../arm-none-eabi/lib/thumb/v7e-m/fpv4-sp/softfp/libc_nano.a(lib_a-findfp.o)
 .text.__sfp_lock_release
                0x0000000000000000        0x2 /home/jalcim/gcc_toolchain/gcc-arm-none-eabi-7-2018-q2-update/bin/../lib/gcc/arm-none-eabi/7.3.1/../../../../arm-none-eabi/lib/thumb/v7e-m/fpv4-sp/softfp/libc_nano.a(lib_a-findfp.o)
 .text.__sinit_lock_acquire
                0x0000000000000000        0x2 /home/jalcim/gcc_toolchain/gcc-arm-none-eabi-7-2018-q2-update/bin/../lib/gcc/arm-none-eabi/7.3.1/../../../../arm-none-eabi/lib/thumb/v7e-m/fpv4-sp/softfp/libc_nano.a(lib_a-findfp.o)
 .text.__sinit_lock_release
                0x0000000000000000        0x2 /home/jalcim/gcc_toolchain/gcc-arm-none-eabi-7-2018-q2-update/bin/../lib/gcc/arm-none-eabi/7.3.1/../../../../arm-none-eabi/lib/thumb/v7e-m/fpv4-sp/softfp/libc_nano.a(lib_a-findfp.o)
 .text.__fp_lock_all
                0x0000000000000000       0x14 /home/jalcim/gcc_toolchain/gcc-arm-none-eabi-7-2018-q2-update/bin/../lib/gcc/arm-none-eabi/7.3.1/../../../../arm-none-eabi/lib/thumb/v7e-m/fpv4-sp/softfp/libc_nano.a(lib_a-findfp.o)
 .text.__fp_unlock_all
                0x0000000000000000       0x14 /home/jalcim/gcc_toolchain/gcc-arm-none-eabi-7-2018-q2-update/bin/../lib/gcc/arm-none-eabi/7.3.1/../../../../arm-none-eabi/lib/thumb/v7e-m/fpv4-sp/softfp/libc_nano.a(lib_a-findfp.o)
 .text          0x0000000000000000        0x0 /home/jalcim/gcc_toolchain/gcc-arm-none-eabi-7-2018-q2-update/bin/../lib/gcc/arm-none-eabi/7.3.1/../../../../arm-none-eabi/lib/thumb/v7e-m/fpv4-sp/softfp/libc_nano.a(lib_a-fprintf.o)
 .data          0x0000000000000000        0x0 /home/jalcim/gcc_toolchain/gcc-arm-none-eabi-7-2018-q2-update/bin/../lib/gcc/arm-none-eabi/7.3.1/../../../../arm-none-eabi/lib/thumb/v7e-m/fpv4-sp/softfp/libc_nano.a(lib_a-fprintf.o)
 .bss           0x0000000000000000        0x0 /home/jalcim/gcc_toolchain/gcc-arm-none-eabi-7-2018-q2-update/bin/../lib/gcc/arm-none-eabi/7.3.1/../../../../arm-none-eabi/lib/thumb/v7e-m/fpv4-sp/softfp/libc_nano.a(lib_a-fprintf.o)
 .text._fprintf_r
                0x0000000000000000       0x1a /home/jalcim/gcc_toolchain/gcc-arm-none-eabi-7-2018-q2-update/bin/../lib/gcc/arm-none-eabi/7.3.1/../../../../arm-none-eabi/lib/thumb/v7e-m/fpv4-sp/softfp/libc_nano.a(lib_a-fprintf.o)
 .text          0x0000000000000000        0x0 /home/jalcim/gcc_toolchain/gcc-arm-none-eabi-7-2018-q2-update/bin/../lib/gcc/arm-none-eabi/7.3.1/../../../../arm-none-eabi/lib/thumb/v7e-m/fpv4-sp/softfp/libc_nano.a(lib_a-fwalk.o)
 .data          0x0000000000000000        0x0 /home/jalcim/gcc_toolchain/gcc-arm-none-eabi-7-2018-q2-update/bin/../lib/gcc/arm-none-eabi/7.3.1/../../../../arm-none-eabi/lib/thumb/v7e-m/fpv4-sp/softfp/libc_nano.a(lib_a-fwalk.o)
 .bss           0x0000000000000000        0x0 /home/jalcim/gcc_toolchain/gcc-arm-none-eabi-7-2018-q2-update/bin/../lib/gcc/arm-none-eabi/7.3.1/../../../../arm-none-eabi/lib/thumb/v7e-m/fpv4-sp/softfp/libc_nano.a(lib_a-fwalk.o)
 .text          0x0000000000000000        0x0 /home/jalcim/gcc_toolchain/gcc-arm-none-eabi-7-2018-q2-update/bin/../lib/gcc/arm-none-eabi/7.3.1/../../../../arm-none-eabi/lib/thumb/v7e-m/fpv4-sp/softfp/libc_nano.a(lib_a-impure.o)
 .data          0x0000000000000000        0x0 /home/jalcim/gcc_toolchain/gcc-arm-none-eabi-7-2018-q2-update/bin/../lib/gcc/arm-none-eabi/7.3.1/../../../../arm-none-eabi/lib/thumb/v7e-m/fpv4-sp/softfp/libc_nano.a(lib_a-impure.o)
 .bss           0x0000000000000000        0x0 /home/jalcim/gcc_toolchain/gcc-arm-none-eabi-7-2018-q2-update/bin/../lib/gcc/arm-none-eabi/7.3.1/../../../../arm-none-eabi/lib/thumb/v7e-m/fpv4-sp/softfp/libc_nano.a(lib_a-impure.o)
 .text          0x0000000000000000        0x0 /home/jalcim/gcc_toolchain/gcc-arm-none-eabi-7-2018-q2-update/bin/../lib/gcc/arm-none-eabi/7.3.1/../../../../arm-none-eabi/lib/thumb/v7e-m/fpv4-sp/softfp/libc_nano.a(lib_a-init.o)
 .data          0x0000000000000000        0x0 /home/jalcim/gcc_toolchain/gcc-arm-none-eabi-7-2018-q2-update/bin/../lib/gcc/arm-none-eabi/7.3.1/../../../../arm-none-eabi/lib/thumb/v7e-m/fpv4-sp/softfp/libc_nano.a(lib_a-init.o)
 .bss           0x0000000000000000        0x0 /home/jalcim/gcc_toolchain/gcc-arm-none-eabi-7-2018-q2-update/bin/../lib/gcc/arm-none-eabi/7.3.1/../../../../arm-none-eabi/lib/thumb/v7e-m/fpv4-sp/softfp/libc_nano.a(lib_a-init.o)
 .data          0x0000000000000000        0x0 /home/jalcim/gcc_toolchain/gcc-arm-none-eabi-7-2018-q2-update/bin/../lib/gcc/arm-none-eabi/7.3.1/../../../../arm-none-eabi/lib/thumb/v7e-m/fpv4-sp/softfp/libc_nano.a(lib_a-memchr.o)
 .bss           0x0000000000000000        0x0 /home/jalcim/gcc_toolchain/gcc-arm-none-eabi-7-2018-q2-update/bin/../lib/gcc/arm-none-eabi/7.3.1/../../../../arm-none-eabi/lib/thumb/v7e-m/fpv4-sp/softfp/libc_nano.a(lib_a-memchr.o)
 .text          0x0000000000000000        0x0 /home/jalcim/gcc_toolchain/gcc-arm-none-eabi-7-2018-q2-update/bin/../lib/gcc/arm-none-eabi/7.3.1/../../../../arm-none-eabi/lib/thumb/v7e-m/fpv4-sp/softfp/libc_nano.a(lib_a-memcpy-stub.o)
 .data          0x0000000000000000        0x0 /home/jalcim/gcc_toolchain/gcc-arm-none-eabi-7-2018-q2-update/bin/../lib/gcc/arm-none-eabi/7.3.1/../../../../arm-none-eabi/lib/thumb/v7e-m/fpv4-sp/softfp/libc_nano.a(lib_a-memcpy-stub.o)
 .bss           0x0000000000000000        0x0 /home/jalcim/gcc_toolchain/gcc-arm-none-eabi-7-2018-q2-update/bin/../lib/gcc/arm-none-eabi/7.3.1/../../../../arm-none-eabi/lib/thumb/v7e-m/fpv4-sp/softfp/libc_nano.a(lib_a-memcpy-stub.o)
 .text          0x0000000000000000        0x0 /home/jalcim/gcc_toolchain/gcc-arm-none-eabi-7-2018-q2-update/bin/../lib/gcc/arm-none-eabi/7.3.1/../../../../arm-none-eabi/lib/thumb/v7e-m/fpv4-sp/softfp/libc_nano.a(lib_a-memset.o)
 .data          0x0000000000000000        0x0 /home/jalcim/gcc_toolchain/gcc-arm-none-eabi-7-2018-q2-update/bin/../lib/gcc/arm-none-eabi/7.3.1/../../../../arm-none-eabi/lib/thumb/v7e-m/fpv4-sp/softfp/libc_nano.a(lib_a-memset.o)
 .bss           0x0000000000000000        0x0 /home/jalcim/gcc_toolchain/gcc-arm-none-eabi-7-2018-q2-update/bin/../lib/gcc/arm-none-eabi/7.3.1/../../../../arm-none-eabi/lib/thumb/v7e-m/fpv4-sp/softfp/libc_nano.a(lib_a-memset.o)
 .text          0x0000000000000000        0x0 /home/jalcim/gcc_toolchain/gcc-arm-none-eabi-7-2018-q2-update/bin/../lib/gcc/arm-none-eabi/7.3.1/../../../../arm-none-eabi/lib/thumb/v7e-m/fpv4-sp/softfp/libc_nano.a(lib_a-nano-mallocr.o)
 .data          0x0000000000000000        0x0 /home/jalcim/gcc_toolchain/gcc-arm-none-eabi-7-2018-q2-update/bin/../lib/gcc/arm-none-eabi/7.3.1/../../../../arm-none-eabi/lib/thumb/v7e-m/fpv4-sp/softfp/libc_nano.a(lib_a-nano-mallocr.o)
 .bss           0x0000000000000000        0x0 /home/jalcim/gcc_toolchain/gcc-arm-none-eabi-7-2018-q2-update/bin/../lib/gcc/arm-none-eabi/7.3.1/../../../../arm-none-eabi/lib/thumb/v7e-m/fpv4-sp/softfp/libc_nano.a(lib_a-nano-mallocr.o)
 .text          0x0000000000000000        0x0 /home/jalcim/gcc_toolchain/gcc-arm-none-eabi-7-2018-q2-update/bin/../lib/gcc/arm-none-eabi/7.3.1/../../../../arm-none-eabi/lib/thumb/v7e-m/fpv4-sp/softfp/libc_nano.a(lib_a-nano-vfprintf.o)
 .data          0x0000000000000000        0x0 /home/jalcim/gcc_toolchain/gcc-arm-none-eabi-7-2018-q2-update/bin/../lib/gcc/arm-none-eabi/7.3.1/../../../../arm-none-eabi/lib/thumb/v7e-m/fpv4-sp/softfp/libc_nano.a(lib_a-nano-vfprintf.o)
 .bss           0x0000000000000000        0x0 /home/jalcim/gcc_toolchain/gcc-arm-none-eabi-7-2018-q2-update/bin/../lib/gcc/arm-none-eabi/7.3.1/../../../../arm-none-eabi/lib/thumb/v7e-m/fpv4-sp/softfp/libc_nano.a(lib_a-nano-vfprintf.o)
 .text.__sprint_r
                0x0000000000000000       0x1a /home/jalcim/gcc_toolchain/gcc-arm-none-eabi-7-2018-q2-update/bin/../lib/gcc/arm-none-eabi/7.3.1/../../../../arm-none-eabi/lib/thumb/v7e-m/fpv4-sp/softfp/libc_nano.a(lib_a-nano-vfprintf.o)
 .text          0x0000000000000000        0x0 /home/jalcim/gcc_toolchain/gcc-arm-none-eabi-7-2018-q2-update/bin/../lib/gcc/arm-none-eabi/7.3.1/../../../../arm-none-eabi/lib/thumb/v7e-m/fpv4-sp/softfp/libc_nano.a(lib_a-nano-vfprintf_i.o)
 .data          0x0000000000000000        0x0 /home/jalcim/gcc_toolchain/gcc-arm-none-eabi-7-2018-q2-update/bin/../lib/gcc/arm-none-eabi/7.3.1/../../../../arm-none-eabi/lib/thumb/v7e-m/fpv4-sp/softfp/libc_nano.a(lib_a-nano-vfprintf_i.o)
 .bss           0x0000000000000000        0x0 /home/jalcim/gcc_toolchain/gcc-arm-none-eabi-7-2018-q2-update/bin/../lib/gcc/arm-none-eabi/7.3.1/../../../../arm-none-eabi/lib/thumb/v7e-m/fpv4-sp/softfp/libc_nano.a(lib_a-nano-vfprintf_i.o)
 .text          0x0000000000000000        0x0 /home/jalcim/gcc_toolchain/gcc-arm-none-eabi-7-2018-q2-update/bin/../lib/gcc/arm-none-eabi/7.3.1/../../../../arm-none-eabi/lib/thumb/v7e-m/fpv4-sp/softfp/libc_nano.a(lib_a-reent.o)
 .data          0x0000000000000000        0x0 /home/jalcim/gcc_toolchain/gcc-arm-none-eabi-7-2018-q2-update/bin/../lib/gcc/arm-none-eabi/7.3.1/../../../../arm-none-eabi/lib/thumb/v7e-m/fpv4-sp/softfp/libc_nano.a(lib_a-reent.o)
 .bss           0x0000000000000000        0x0 /home/jalcim/gcc_toolchain/gcc-arm-none-eabi-7-2018-q2-update/bin/../lib/gcc/arm-none-eabi/7.3.1/../../../../arm-none-eabi/lib/thumb/v7e-m/fpv4-sp/softfp/libc_nano.a(lib_a-reent.o)
 .text.cleanup_glue
                0x0000000000000000       0x1a /home/jalcim/gcc_toolchain/gcc-arm-none-eabi-7-2018-q2-update/bin/../lib/gcc/arm-none-eabi/7.3.1/../../../../arm-none-eabi/lib/thumb/v7e-m/fpv4-sp/softfp/libc_nano.a(lib_a-reent.o)
 .text._reclaim_reent
                0x0000000000000000       0xb8 /home/jalcim/gcc_toolchain/gcc-arm-none-eabi-7-2018-q2-update/bin/../lib/gcc/arm-none-eabi/7.3.1/../../../../arm-none-eabi/lib/thumb/v7e-m/fpv4-sp/softfp/libc_nano.a(lib_a-reent.o)
 .text          0x0000000000000000        0x0 /home/jalcim/gcc_toolchain/gcc-arm-none-eabi-7-2018-q2-update/bin/../lib/gcc/arm-none-eabi/7.3.1/../../../../arm-none-eabi/lib/thumb/v7e-m/fpv4-sp/softfp/libc_nano.a(lib_a-refill.o)
 .data          0x0000000000000000        0x0 /home/jalcim/gcc_toolchain/gcc-arm-none-eabi-7-2018-q2-update/bin/../lib/gcc/arm-none-eabi/7.3.1/../../../../arm-none-eabi/lib/thumb/v7e-m/fpv4-sp/softfp/libc_nano.a(lib_a-refill.o)
 .bss           0x0000000000000000        0x0 /home/jalcim/gcc_toolchain/gcc-arm-none-eabi-7-2018-q2-update/bin/../lib/gcc/arm-none-eabi/7.3.1/../../../../arm-none-eabi/lib/thumb/v7e-m/fpv4-sp/softfp/libc_nano.a(lib_a-refill.o)
 .text          0x0000000000000000        0x0 /home/jalcim/gcc_toolchain/gcc-arm-none-eabi-7-2018-q2-update/bin/../lib/gcc/arm-none-eabi/7.3.1/../../../../arm-none-eabi/lib/thumb/v7e-m/fpv4-sp/softfp/libc_nano.a(lib_a-sbrkr.o)
 .data          0x0000000000000000        0x0 /home/jalcim/gcc_toolchain/gcc-arm-none-eabi-7-2018-q2-update/bin/../lib/gcc/arm-none-eabi/7.3.1/../../../../arm-none-eabi/lib/thumb/v7e-m/fpv4-sp/softfp/libc_nano.a(lib_a-sbrkr.o)
 .bss           0x0000000000000000        0x0 /home/jalcim/gcc_toolchain/gcc-arm-none-eabi-7-2018-q2-update/bin/../lib/gcc/arm-none-eabi/7.3.1/../../../../arm-none-eabi/lib/thumb/v7e-m/fpv4-sp/softfp/libc_nano.a(lib_a-sbrkr.o)
 .text          0x0000000000000000        0x0 /home/jalcim/gcc_toolchain/gcc-arm-none-eabi-7-2018-q2-update/bin/../lib/gcc/arm-none-eabi/7.3.1/../../../../arm-none-eabi/lib/thumb/v7e-m/fpv4-sp/softfp/libc_nano.a(lib_a-setvbuf.o)
 .data          0x0000000000000000        0x0 /home/jalcim/gcc_toolchain/gcc-arm-none-eabi-7-2018-q2-update/bin/../lib/gcc/arm-none-eabi/7.3.1/../../../../arm-none-eabi/lib/thumb/v7e-m/fpv4-sp/softfp/libc_nano.a(lib_a-setvbuf.o)
 .bss           0x0000000000000000        0x0 /home/jalcim/gcc_toolchain/gcc-arm-none-eabi-7-2018-q2-update/bin/../lib/gcc/arm-none-eabi/7.3.1/../../../../arm-none-eabi/lib/thumb/v7e-m/fpv4-sp/softfp/libc_nano.a(lib_a-setvbuf.o)
 .text          0x0000000000000000        0x0 /home/jalcim/gcc_toolchain/gcc-arm-none-eabi-7-2018-q2-update/bin/../lib/gcc/arm-none-eabi/7.3.1/../../../../arm-none-eabi/lib/thumb/v7e-m/fpv4-sp/softfp/libc_nano.a(lib_a-stdio.o)
 .data          0x0000000000000000        0x0 /home/jalcim/gcc_toolchain/gcc-arm-none-eabi-7-2018-q2-update/bin/../lib/gcc/arm-none-eabi/7.3.1/../../../../arm-none-eabi/lib/thumb/v7e-m/fpv4-sp/softfp/libc_nano.a(lib_a-stdio.o)
 .bss           0x0000000000000000        0x0 /home/jalcim/gcc_toolchain/gcc-arm-none-eabi-7-2018-q2-update/bin/../lib/gcc/arm-none-eabi/7.3.1/../../../../arm-none-eabi/lib/thumb/v7e-m/fpv4-sp/softfp/libc_nano.a(lib_a-stdio.o)
 .text.__seofread
                0x0000000000000000        0x4 /home/jalcim/gcc_toolchain/gcc-arm-none-eabi-7-2018-q2-update/bin/../lib/gcc/arm-none-eabi/7.3.1/../../../../arm-none-eabi/lib/thumb/v7e-m/fpv4-sp/softfp/libc_nano.a(lib_a-stdio.o)
 .text          0x0000000000000000        0x0 /home/jalcim/gcc_toolchain/gcc-arm-none-eabi-7-2018-q2-update/bin/../lib/gcc/arm-none-eabi/7.3.1/../../../../arm-none-eabi/lib/thumb/v7e-m/fpv4-sp/softfp/libc_nano.a(lib_a-strcasecmp.o)
 .data          0x0000000000000000        0x0 /home/jalcim/gcc_toolchain/gcc-arm-none-eabi-7-2018-q2-update/bin/../lib/gcc/arm-none-eabi/7.3.1/../../../../arm-none-eabi/lib/thumb/v7e-m/fpv4-sp/softfp/libc_nano.a(lib_a-strcasecmp.o)
 .bss           0x0000000000000000        0x0 /home/jalcim/gcc_toolchain/gcc-arm-none-eabi-7-2018-q2-update/bin/../lib/gcc/arm-none-eabi/7.3.1/../../../../arm-none-eabi/lib/thumb/v7e-m/fpv4-sp/softfp/libc_nano.a(lib_a-strcasecmp.o)
 .data          0x0000000000000000        0x0 /home/jalcim/gcc_toolchain/gcc-arm-none-eabi-7-2018-q2-update/bin/../lib/gcc/arm-none-eabi/7.3.1/../../../../arm-none-eabi/lib/thumb/v7e-m/fpv4-sp/softfp/libc_nano.a(lib_a-strlen.o)
 .bss           0x0000000000000000        0x0 /home/jalcim/gcc_toolchain/gcc-arm-none-eabi-7-2018-q2-update/bin/../lib/gcc/arm-none-eabi/7.3.1/../../../../arm-none-eabi/lib/thumb/v7e-m/fpv4-sp/softfp/libc_nano.a(lib_a-strlen.o)
 .text          0x0000000000000000        0x0 /home/jalcim/gcc_toolchain/gcc-arm-none-eabi-7-2018-q2-update/bin/../lib/gcc/arm-none-eabi/7.3.1/../../../../arm-none-eabi/lib/thumb/v7e-m/fpv4-sp/softfp/libc_nano.a(lib_a-strncasecmp.o)
 .data          0x0000000000000000        0x0 /home/jalcim/gcc_toolchain/gcc-arm-none-eabi-7-2018-q2-update/bin/../lib/gcc/arm-none-eabi/7.3.1/../../../../arm-none-eabi/lib/thumb/v7e-m/fpv4-sp/softfp/libc_nano.a(lib_a-strncasecmp.o)
 .bss           0x0000000000000000        0x0 /home/jalcim/gcc_toolchain/gcc-arm-none-eabi-7-2018-q2-update/bin/../lib/gcc/arm-none-eabi/7.3.1/../../../../arm-none-eabi/lib/thumb/v7e-m/fpv4-sp/softfp/libc_nano.a(lib_a-strncasecmp.o)
 .text          0x0000000000000000        0x0 /home/jalcim/gcc_toolchain/gcc-arm-none-eabi-7-2018-q2-update/bin/../lib/gcc/arm-none-eabi/7.3.1/../../../../arm-none-eabi/lib/thumb/v7e-m/fpv4-sp/softfp/libc_nano.a(lib_a-strtoul.o)
 .data          0x0000000000000000        0x0 /home/jalcim/gcc_toolchain/gcc-arm-none-eabi-7-2018-q2-update/bin/../lib/gcc/arm-none-eabi/7.3.1/../../../../arm-none-eabi/lib/thumb/v7e-m/fpv4-sp/softfp/libc_nano.a(lib_a-strtoul.o)
 .bss           0x0000000000000000        0x0 /home/jalcim/gcc_toolchain/gcc-arm-none-eabi-7-2018-q2-update/bin/../lib/gcc/arm-none-eabi/7.3.1/../../../../arm-none-eabi/lib/thumb/v7e-m/fpv4-sp/softfp/libc_nano.a(lib_a-strtoul.o)
 .text._strtoul_r
                0x0000000000000000       0x24 /home/jalcim/gcc_toolchain/gcc-arm-none-eabi-7-2018-q2-update/bin/../lib/gcc/arm-none-eabi/7.3.1/../../../../arm-none-eabi/lib/thumb/v7e-m/fpv4-sp/softfp/libc_nano.a(lib_a-strtoul.o)
 .text.strtoul_l
                0x0000000000000000       0x1c /home/jalcim/gcc_toolchain/gcc-arm-none-eabi-7-2018-q2-update/bin/../lib/gcc/arm-none-eabi/7.3.1/../../../../arm-none-eabi/lib/thumb/v7e-m/fpv4-sp/softfp/libc_nano.a(lib_a-strtoul.o)
 .text          0x0000000000000000        0x0 /home/jalcim/gcc_toolchain/gcc-arm-none-eabi-7-2018-q2-update/bin/../lib/gcc/arm-none-eabi/7.3.1/../../../../arm-none-eabi/lib/thumb/v7e-m/fpv4-sp/softfp/libc_nano.a(lib_a-strtoull.o)
 .data          0x0000000000000000        0x0 /home/jalcim/gcc_toolchain/gcc-arm-none-eabi-7-2018-q2-update/bin/../lib/gcc/arm-none-eabi/7.3.1/../../../../arm-none-eabi/lib/thumb/v7e-m/fpv4-sp/softfp/libc_nano.a(lib_a-strtoull.o)
 .bss           0x0000000000000000        0x0 /home/jalcim/gcc_toolchain/gcc-arm-none-eabi-7-2018-q2-update/bin/../lib/gcc/arm-none-eabi/7.3.1/../../../../arm-none-eabi/lib/thumb/v7e-m/fpv4-sp/softfp/libc_nano.a(lib_a-strtoull.o)
 .text._strtoull_r
                0x0000000000000000       0x24 /home/jalcim/gcc_toolchain/gcc-arm-none-eabi-7-2018-q2-update/bin/../lib/gcc/arm-none-eabi/7.3.1/../../../../arm-none-eabi/lib/thumb/v7e-m/fpv4-sp/softfp/libc_nano.a(lib_a-strtoull.o)
 .text.strtoull_l
                0x0000000000000000       0x1c /home/jalcim/gcc_toolchain/gcc-arm-none-eabi-7-2018-q2-update/bin/../lib/gcc/arm-none-eabi/7.3.1/../../../../arm-none-eabi/lib/thumb/v7e-m/fpv4-sp/softfp/libc_nano.a(lib_a-strtoull.o)
 .text          0x0000000000000000        0x0 /home/jalcim/gcc_toolchain/gcc-arm-none-eabi-7-2018-q2-update/bin/../lib/gcc/arm-none-eabi/7.3.1/../../../../arm-none-eabi/lib/thumb/v7e-m/fpv4-sp/softfp/libc_nano.a(lib_a-wbuf.o)
 .data          0x0000000000000000        0x0 /home/jalcim/gcc_toolchain/gcc-arm-none-eabi-7-2018-q2-update/bin/../lib/gcc/arm-none-eabi/7.3.1/../../../../arm-none-eabi/lib/thumb/v7e-m/fpv4-sp/softfp/libc_nano.a(lib_a-wbuf.o)
 .bss           0x0000000000000000        0x0 /home/jalcim/gcc_toolchain/gcc-arm-none-eabi-7-2018-q2-update/bin/../lib/gcc/arm-none-eabi/7.3.1/../../../../arm-none-eabi/lib/thumb/v7e-m/fpv4-sp/softfp/libc_nano.a(lib_a-wbuf.o)
 .text.__swbuf  0x0000000000000000       0x10 /home/jalcim/gcc_toolchain/gcc-arm-none-eabi-7-2018-q2-update/bin/../lib/gcc/arm-none-eabi/7.3.1/../../../../arm-none-eabi/lib/thumb/v7e-m/fpv4-sp/softfp/libc_nano.a(lib_a-wbuf.o)
 .text          0x0000000000000000        0x0 /home/jalcim/gcc_toolchain/gcc-arm-none-eabi-7-2018-q2-update/bin/../lib/gcc/arm-none-eabi/7.3.1/../../../../arm-none-eabi/lib/thumb/v7e-m/fpv4-sp/softfp/libc_nano.a(lib_a-writer.o)
 .data          0x0000000000000000        0x0 /home/jalcim/gcc_toolchain/gcc-arm-none-eabi-7-2018-q2-update/bin/../lib/gcc/arm-none-eabi/7.3.1/../../../../arm-none-eabi/lib/thumb/v7e-m/fpv4-sp/softfp/libc_nano.a(lib_a-writer.o)
 .bss           0x0000000000000000        0x0 /home/jalcim/gcc_toolchain/gcc-arm-none-eabi-7-2018-q2-update/bin/../lib/gcc/arm-none-eabi/7.3.1/../../../../arm-none-eabi/lib/thumb/v7e-m/fpv4-sp/softfp/libc_nano.a(lib_a-writer.o)
 .text          0x0000000000000000        0x0 /home/jalcim/gcc_toolchain/gcc-arm-none-eabi-7-2018-q2-update/bin/../lib/gcc/arm-none-eabi/7.3.1/../../../../arm-none-eabi/lib/thumb/v7e-m/fpv4-sp/softfp/libc_nano.a(lib_a-wsetup.o)
 .data          0x0000000000000000        0x0 /home/jalcim/gcc_toolchain/gcc-arm-none-eabi-7-2018-q2-update/bin/../lib/gcc/arm-none-eabi/7.3.1/../../../../arm-none-eabi/lib/thumb/v7e-m/fpv4-sp/softfp/libc_nano.a(lib_a-wsetup.o)
 .bss           0x0000000000000000        0x0 /home/jalcim/gcc_toolchain/gcc-arm-none-eabi-7-2018-q2-update/bin/../lib/gcc/arm-none-eabi/7.3.1/../../../../arm-none-eabi/lib/thumb/v7e-m/fpv4-sp/softfp/libc_nano.a(lib_a-wsetup.o)
 .text          0x0000000000000000        0x0 /home/jalcim/gcc_toolchain/gcc-arm-none-eabi-7-2018-q2-update/bin/../lib/gcc/arm-none-eabi/7.3.1/../../../../arm-none-eabi/lib/thumb/v7e-m/fpv4-sp/softfp/libc_nano.a(lib_a-abort.o)
 .data          0x0000000000000000        0x0 /home/jalcim/gcc_toolchain/gcc-arm-none-eabi-7-2018-q2-update/bin/../lib/gcc/arm-none-eabi/7.3.1/../../../../arm-none-eabi/lib/thumb/v7e-m/fpv4-sp/softfp/libc_nano.a(lib_a-abort.o)
 .bss           0x0000000000000000        0x0 /home/jalcim/gcc_toolchain/gcc-arm-none-eabi-7-2018-q2-update/bin/../lib/gcc/arm-none-eabi/7.3.1/../../../../arm-none-eabi/lib/thumb/v7e-m/fpv4-sp/softfp/libc_nano.a(lib_a-abort.o)
 .text          0x0000000000000000        0x0 /home/jalcim/gcc_toolchain/gcc-arm-none-eabi-7-2018-q2-update/bin/../lib/gcc/arm-none-eabi/7.3.1/../../../../arm-none-eabi/lib/thumb/v7e-m/fpv4-sp/softfp/libc_nano.a(lib_a-closer.o)
 .data          0x0000000000000000        0x0 /home/jalcim/gcc_toolchain/gcc-arm-none-eabi-7-2018-q2-update/bin/../lib/gcc/arm-none-eabi/7.3.1/../../../../arm-none-eabi/lib/thumb/v7e-m/fpv4-sp/softfp/libc_nano.a(lib_a-closer.o)
 .bss           0x0000000000000000        0x0 /home/jalcim/gcc_toolchain/gcc-arm-none-eabi-7-2018-q2-update/bin/../lib/gcc/arm-none-eabi/7.3.1/../../../../arm-none-eabi/lib/thumb/v7e-m/fpv4-sp/softfp/libc_nano.a(lib_a-closer.o)
 .text          0x0000000000000000        0x0 /home/jalcim/gcc_toolchain/gcc-arm-none-eabi-7-2018-q2-update/bin/../lib/gcc/arm-none-eabi/7.3.1/../../../../arm-none-eabi/lib/thumb/v7e-m/fpv4-sp/softfp/libc_nano.a(lib_a-fflush.o)
 .data          0x0000000000000000        0x0 /home/jalcim/gcc_toolchain/gcc-arm-none-eabi-7-2018-q2-update/bin/../lib/gcc/arm-none-eabi/7.3.1/../../../../arm-none-eabi/lib/thumb/v7e-m/fpv4-sp/softfp/libc_nano.a(lib_a-fflush.o)
 .bss           0x0000000000000000        0x0 /home/jalcim/gcc_toolchain/gcc-arm-none-eabi-7-2018-q2-update/bin/../lib/gcc/arm-none-eabi/7.3.1/../../../../arm-none-eabi/lib/thumb/v7e-m/fpv4-sp/softfp/libc_nano.a(lib_a-fflush.o)
 .text          0x0000000000000000        0x0 /home/jalcim/gcc_toolchain/gcc-arm-none-eabi-7-2018-q2-update/bin/../lib/gcc/arm-none-eabi/7.3.1/../../../../arm-none-eabi/lib/thumb/v7e-m/fpv4-sp/softfp/libc_nano.a(lib_a-fvwrite.o)
 .data          0x0000000000000000        0x0 /home/jalcim/gcc_toolchain/gcc-arm-none-eabi-7-2018-q2-update/bin/../lib/gcc/arm-none-eabi/7.3.1/../../../../arm-none-eabi/lib/thumb/v7e-m/fpv4-sp/softfp/libc_nano.a(lib_a-fvwrite.o)
 .bss           0x0000000000000000        0x0 /home/jalcim/gcc_toolchain/gcc-arm-none-eabi-7-2018-q2-update/bin/../lib/gcc/arm-none-eabi/7.3.1/../../../../arm-none-eabi/lib/thumb/v7e-m/fpv4-sp/softfp/libc_nano.a(lib_a-fvwrite.o)
 .text.__sfvwrite_r
                0x0000000000000000      0x29c /home/jalcim/gcc_toolchain/gcc-arm-none-eabi-7-2018-q2-update/bin/../lib/gcc/arm-none-eabi/7.3.1/../../../../arm-none-eabi/lib/thumb/v7e-m/fpv4-sp/softfp/libc_nano.a(lib_a-fvwrite.o)
 .debug_frame   0x0000000000000000       0x3c /home/jalcim/gcc_toolchain/gcc-arm-none-eabi-7-2018-q2-update/bin/../lib/gcc/arm-none-eabi/7.3.1/../../../../arm-none-eabi/lib/thumb/v7e-m/fpv4-sp/softfp/libc_nano.a(lib_a-fvwrite.o)
 .ARM.attributes
                0x0000000000000000       0x32 /home/jalcim/gcc_toolchain/gcc-arm-none-eabi-7-2018-q2-update/bin/../lib/gcc/arm-none-eabi/7.3.1/../../../../arm-none-eabi/lib/thumb/v7e-m/fpv4-sp/softfp/libc_nano.a(lib_a-fvwrite.o)
 .text          0x0000000000000000        0x0 /home/jalcim/gcc_toolchain/gcc-arm-none-eabi-7-2018-q2-update/bin/../lib/gcc/arm-none-eabi/7.3.1/../../../../arm-none-eabi/lib/thumb/v7e-m/fpv4-sp/softfp/libc_nano.a(lib_a-locale.o)
 .data          0x0000000000000000        0x0 /home/jalcim/gcc_toolchain/gcc-arm-none-eabi-7-2018-q2-update/bin/../lib/gcc/arm-none-eabi/7.3.1/../../../../arm-none-eabi/lib/thumb/v7e-m/fpv4-sp/softfp/libc_nano.a(lib_a-locale.o)
 .bss           0x0000000000000000        0x0 /home/jalcim/gcc_toolchain/gcc-arm-none-eabi-7-2018-q2-update/bin/../lib/gcc/arm-none-eabi/7.3.1/../../../../arm-none-eabi/lib/thumb/v7e-m/fpv4-sp/softfp/libc_nano.a(lib_a-locale.o)
 .text._setlocale_r
                0x0000000000000000       0x38 /home/jalcim/gcc_toolchain/gcc-arm-none-eabi-7-2018-q2-update/bin/../lib/gcc/arm-none-eabi/7.3.1/../../../../arm-none-eabi/lib/thumb/v7e-m/fpv4-sp/softfp/libc_nano.a(lib_a-locale.o)
 .text.__locale_mb_cur_max
                0x0000000000000000       0x1c /home/jalcim/gcc_toolchain/gcc-arm-none-eabi-7-2018-q2-update/bin/../lib/gcc/arm-none-eabi/7.3.1/../../../../arm-none-eabi/lib/thumb/v7e-m/fpv4-sp/softfp/libc_nano.a(lib_a-locale.o)
 .text.setlocale
                0x0000000000000000       0x10 /home/jalcim/gcc_toolchain/gcc-arm-none-eabi-7-2018-q2-update/bin/../lib/gcc/arm-none-eabi/7.3.1/../../../../arm-none-eabi/lib/thumb/v7e-m/fpv4-sp/softfp/libc_nano.a(lib_a-locale.o)
 .bss._PathLocale
                0x0000000000000000        0x4 /home/jalcim/gcc_toolchain/gcc-arm-none-eabi-7-2018-q2-update/bin/../lib/gcc/arm-none-eabi/7.3.1/../../../../arm-none-eabi/lib/thumb/v7e-m/fpv4-sp/softfp/libc_nano.a(lib_a-locale.o)
 .text          0x0000000000000000        0x0 /home/jalcim/gcc_toolchain/gcc-arm-none-eabi-7-2018-q2-update/bin/../lib/gcc/arm-none-eabi/7.3.1/../../../../arm-none-eabi/lib/thumb/v7e-m/fpv4-sp/softfp/libc_nano.a(lib_a-lseekr.o)
 .data          0x0000000000000000        0x0 /home/jalcim/gcc_toolchain/gcc-arm-none-eabi-7-2018-q2-update/bin/../lib/gcc/arm-none-eabi/7.3.1/../../../../arm-none-eabi/lib/thumb/v7e-m/fpv4-sp/softfp/libc_nano.a(lib_a-lseekr.o)
 .bss           0x0000000000000000        0x0 /home/jalcim/gcc_toolchain/gcc-arm-none-eabi-7-2018-q2-update/bin/../lib/gcc/arm-none-eabi/7.3.1/../../../../arm-none-eabi/lib/thumb/v7e-m/fpv4-sp/softfp/libc_nano.a(lib_a-lseekr.o)
 .text          0x0000000000000000        0x0 /home/jalcim/gcc_toolchain/gcc-arm-none-eabi-7-2018-q2-update/bin/../lib/gcc/arm-none-eabi/7.3.1/../../../../arm-none-eabi/lib/thumb/v7e-m/fpv4-sp/softfp/libc_nano.a(lib_a-makebuf.o)
 .data          0x0000000000000000        0x0 /home/jalcim/gcc_toolchain/gcc-arm-none-eabi-7-2018-q2-update/bin/../lib/gcc/arm-none-eabi/7.3.1/../../../../arm-none-eabi/lib/thumb/v7e-m/fpv4-sp/softfp/libc_nano.a(lib_a-makebuf.o)
 .bss           0x0000000000000000        0x0 /home/jalcim/gcc_toolchain/gcc-arm-none-eabi-7-2018-q2-update/bin/../lib/gcc/arm-none-eabi/7.3.1/../../../../arm-none-eabi/lib/thumb/v7e-m/fpv4-sp/softfp/libc_nano.a(lib_a-makebuf.o)
 .text          0x0000000000000000        0x0 /home/jalcim/gcc_toolchain/gcc-arm-none-eabi-7-2018-q2-update/bin/../lib/gcc/arm-none-eabi/7.3.1/../../../../arm-none-eabi/lib/thumb/v7e-m/fpv4-sp/softfp/libc_nano.a(lib_a-malloc.o)
 .data          0x0000000000000000        0x0 /home/jalcim/gcc_toolchain/gcc-arm-none-eabi-7-2018-q2-update/bin/../lib/gcc/arm-none-eabi/7.3.1/../../../../arm-none-eabi/lib/thumb/v7e-m/fpv4-sp/softfp/libc_nano.a(lib_a-malloc.o)
 .bss           0x0000000000000000        0x0 /home/jalcim/gcc_toolchain/gcc-arm-none-eabi-7-2018-q2-update/bin/../lib/gcc/arm-none-eabi/7.3.1/../../../../arm-none-eabi/lib/thumb/v7e-m/fpv4-sp/softfp/libc_nano.a(lib_a-malloc.o)
 .text.free     0x0000000000000000       0x10 /home/jalcim/gcc_toolchain/gcc-arm-none-eabi-7-2018-q2-update/bin/../lib/gcc/arm-none-eabi/7.3.1/../../../../arm-none-eabi/lib/thumb/v7e-m/fpv4-sp/softfp/libc_nano.a(lib_a-malloc.o)
 .text          0x0000000000000000        0x0 /home/jalcim/gcc_toolchain/gcc-arm-none-eabi-7-2018-q2-update/bin/../lib/gcc/arm-none-eabi/7.3.1/../../../../arm-none-eabi/lib/thumb/v7e-m/fpv4-sp/softfp/libc_nano.a(lib_a-mbtowc_r.o)
 .data          0x0000000000000000        0x0 /home/jalcim/gcc_toolchain/gcc-arm-none-eabi-7-2018-q2-update/bin/../lib/gcc/arm-none-eabi/7.3.1/../../../../arm-none-eabi/lib/thumb/v7e-m/fpv4-sp/softfp/libc_nano.a(lib_a-mbtowc_r.o)
 .bss           0x0000000000000000        0x0 /home/jalcim/gcc_toolchain/gcc-arm-none-eabi-7-2018-q2-update/bin/../lib/gcc/arm-none-eabi/7.3.1/../../../../arm-none-eabi/lib/thumb/v7e-m/fpv4-sp/softfp/libc_nano.a(lib_a-mbtowc_r.o)
 .text._mbtowc_r
                0x0000000000000000       0x24 /home/jalcim/gcc_toolchain/gcc-arm-none-eabi-7-2018-q2-update/bin/../lib/gcc/arm-none-eabi/7.3.1/../../../../arm-none-eabi/lib/thumb/v7e-m/fpv4-sp/softfp/libc_nano.a(lib_a-mbtowc_r.o)
 .text          0x0000000000000000        0x0 /home/jalcim/gcc_toolchain/gcc-arm-none-eabi-7-2018-q2-update/bin/../lib/gcc/arm-none-eabi/7.3.1/../../../../arm-none-eabi/lib/thumb/v7e-m/fpv4-sp/softfp/libc_nano.a(lib_a-memmove.o)
 .data          0x0000000000000000        0x0 /home/jalcim/gcc_toolchain/gcc-arm-none-eabi-7-2018-q2-update/bin/../lib/gcc/arm-none-eabi/7.3.1/../../../../arm-none-eabi/lib/thumb/v7e-m/fpv4-sp/softfp/libc_nano.a(lib_a-memmove.o)
 .bss           0x0000000000000000        0x0 /home/jalcim/gcc_toolchain/gcc-arm-none-eabi-7-2018-q2-update/bin/../lib/gcc/arm-none-eabi/7.3.1/../../../../arm-none-eabi/lib/thumb/v7e-m/fpv4-sp/softfp/libc_nano.a(lib_a-memmove.o)
 .text.memmove  0x0000000000000000       0x32 /home/jalcim/gcc_toolchain/gcc-arm-none-eabi-7-2018-q2-update/bin/../lib/gcc/arm-none-eabi/7.3.1/../../../../arm-none-eabi/lib/thumb/v7e-m/fpv4-sp/softfp/libc_nano.a(lib_a-memmove.o)
 .debug_frame   0x0000000000000000       0x28 /home/jalcim/gcc_toolchain/gcc-arm-none-eabi-7-2018-q2-update/bin/../lib/gcc/arm-none-eabi/7.3.1/../../../../arm-none-eabi/lib/thumb/v7e-m/fpv4-sp/softfp/libc_nano.a(lib_a-memmove.o)
 .ARM.attributes
                0x0000000000000000       0x32 /home/jalcim/gcc_toolchain/gcc-arm-none-eabi-7-2018-q2-update/bin/../lib/gcc/arm-none-eabi/7.3.1/../../../../arm-none-eabi/lib/thumb/v7e-m/fpv4-sp/softfp/libc_nano.a(lib_a-memmove.o)
 .text          0x0000000000000000        0x0 /home/jalcim/gcc_toolchain/gcc-arm-none-eabi-7-2018-q2-update/bin/../lib/gcc/arm-none-eabi/7.3.1/../../../../arm-none-eabi/lib/thumb/v7e-m/fpv4-sp/softfp/libc_nano.a(lib_a-mlock.o)
 .data          0x0000000000000000        0x0 /home/jalcim/gcc_toolchain/gcc-arm-none-eabi-7-2018-q2-update/bin/../lib/gcc/arm-none-eabi/7.3.1/../../../../arm-none-eabi/lib/thumb/v7e-m/fpv4-sp/softfp/libc_nano.a(lib_a-mlock.o)
 .bss           0x0000000000000000        0x0 /home/jalcim/gcc_toolchain/gcc-arm-none-eabi-7-2018-q2-update/bin/../lib/gcc/arm-none-eabi/7.3.1/../../../../arm-none-eabi/lib/thumb/v7e-m/fpv4-sp/softfp/libc_nano.a(lib_a-mlock.o)
 .text          0x0000000000000000        0x0 /home/jalcim/gcc_toolchain/gcc-arm-none-eabi-7-2018-q2-update/bin/../lib/gcc/arm-none-eabi/7.3.1/../../../../arm-none-eabi/lib/thumb/v7e-m/fpv4-sp/softfp/libc_nano.a(lib_a-nano-freer.o)
 .data          0x0000000000000000        0x0 /home/jalcim/gcc_toolchain/gcc-arm-none-eabi-7-2018-q2-update/bin/../lib/gcc/arm-none-eabi/7.3.1/../../../../arm-none-eabi/lib/thumb/v7e-m/fpv4-sp/softfp/libc_nano.a(lib_a-nano-freer.o)
 .bss           0x0000000000000000        0x0 /home/jalcim/gcc_toolchain/gcc-arm-none-eabi-7-2018-q2-update/bin/../lib/gcc/arm-none-eabi/7.3.1/../../../../arm-none-eabi/lib/thumb/v7e-m/fpv4-sp/softfp/libc_nano.a(lib_a-nano-freer.o)
 .text          0x0000000000000000        0x0 /home/jalcim/gcc_toolchain/gcc-arm-none-eabi-7-2018-q2-update/bin/../lib/gcc/arm-none-eabi/7.3.1/../../../../arm-none-eabi/lib/thumb/v7e-m/fpv4-sp/softfp/libc_nano.a(lib_a-nano-reallocr.o)
 .data          0x0000000000000000        0x0 /home/jalcim/gcc_toolchain/gcc-arm-none-eabi-7-2018-q2-update/bin/../lib/gcc/arm-none-eabi/7.3.1/../../../../arm-none-eabi/lib/thumb/v7e-m/fpv4-sp/softfp/libc_nano.a(lib_a-nano-reallocr.o)
 .bss           0x0000000000000000        0x0 /home/jalcim/gcc_toolchain/gcc-arm-none-eabi-7-2018-q2-update/bin/../lib/gcc/arm-none-eabi/7.3.1/../../../../arm-none-eabi/lib/thumb/v7e-m/fpv4-sp/softfp/libc_nano.a(lib_a-nano-reallocr.o)
 .text._realloc_r
                0x0000000000000000       0x4c /home/jalcim/gcc_toolchain/gcc-arm-none-eabi-7-2018-q2-update/bin/../lib/gcc/arm-none-eabi/7.3.1/../../../../arm-none-eabi/lib/thumb/v7e-m/fpv4-sp/softfp/libc_nano.a(lib_a-nano-reallocr.o)
 .debug_frame   0x0000000000000000       0x3c /home/jalcim/gcc_toolchain/gcc-arm-none-eabi-7-2018-q2-update/bin/../lib/gcc/arm-none-eabi/7.3.1/../../../../arm-none-eabi/lib/thumb/v7e-m/fpv4-sp/softfp/libc_nano.a(lib_a-nano-reallocr.o)
 .ARM.attributes
                0x0000000000000000       0x32 /home/jalcim/gcc_toolchain/gcc-arm-none-eabi-7-2018-q2-update/bin/../lib/gcc/arm-none-eabi/7.3.1/../../../../arm-none-eabi/lib/thumb/v7e-m/fpv4-sp/softfp/libc_nano.a(lib_a-nano-reallocr.o)
 .text          0x0000000000000000        0x0 /home/jalcim/gcc_toolchain/gcc-arm-none-eabi-7-2018-q2-update/bin/../lib/gcc/arm-none-eabi/7.3.1/../../../../arm-none-eabi/lib/thumb/v7e-m/fpv4-sp/softfp/libc_nano.a(lib_a-readr.o)
 .data          0x0000000000000000        0x0 /home/jalcim/gcc_toolchain/gcc-arm-none-eabi-7-2018-q2-update/bin/../lib/gcc/arm-none-eabi/7.3.1/../../../../arm-none-eabi/lib/thumb/v7e-m/fpv4-sp/softfp/libc_nano.a(lib_a-readr.o)
 .bss           0x0000000000000000        0x0 /home/jalcim/gcc_toolchain/gcc-arm-none-eabi-7-2018-q2-update/bin/../lib/gcc/arm-none-eabi/7.3.1/../../../../arm-none-eabi/lib/thumb/v7e-m/fpv4-sp/softfp/libc_nano.a(lib_a-readr.o)
 .text          0x0000000000000000        0x0 /home/jalcim/gcc_toolchain/gcc-arm-none-eabi-7-2018-q2-update/bin/../lib/gcc/arm-none-eabi/7.3.1/../../../../arm-none-eabi/lib/thumb/v7e-m/fpv4-sp/softfp/libc_nano.a(lib_a-signal.o)
 .data          0x0000000000000000        0x0 /home/jalcim/gcc_toolchain/gcc-arm-none-eabi-7-2018-q2-update/bin/../lib/gcc/arm-none-eabi/7.3.1/../../../../arm-none-eabi/lib/thumb/v7e-m/fpv4-sp/softfp/libc_nano.a(lib_a-signal.o)
 .bss           0x0000000000000000        0x0 /home/jalcim/gcc_toolchain/gcc-arm-none-eabi-7-2018-q2-update/bin/../lib/gcc/arm-none-eabi/7.3.1/../../../../arm-none-eabi/lib/thumb/v7e-m/fpv4-sp/softfp/libc_nano.a(lib_a-signal.o)
 .text._init_signal_r
                0x0000000000000000       0x28 /home/jalcim/gcc_toolchain/gcc-arm-none-eabi-7-2018-q2-update/bin/../lib/gcc/arm-none-eabi/7.3.1/../../../../arm-none-eabi/lib/thumb/v7e-m/fpv4-sp/softfp/libc_nano.a(lib_a-signal.o)
 .text._signal_r
                0x0000000000000000       0x30 /home/jalcim/gcc_toolchain/gcc-arm-none-eabi-7-2018-q2-update/bin/../lib/gcc/arm-none-eabi/7.3.1/../../../../arm-none-eabi/lib/thumb/v7e-m/fpv4-sp/softfp/libc_nano.a(lib_a-signal.o)
 .text.__sigtramp_r
                0x0000000000000000       0x48 /home/jalcim/gcc_toolchain/gcc-arm-none-eabi-7-2018-q2-update/bin/../lib/gcc/arm-none-eabi/7.3.1/../../../../arm-none-eabi/lib/thumb/v7e-m/fpv4-sp/softfp/libc_nano.a(lib_a-signal.o)
 .text.signal   0x0000000000000000       0x10 /home/jalcim/gcc_toolchain/gcc-arm-none-eabi-7-2018-q2-update/bin/../lib/gcc/arm-none-eabi/7.3.1/../../../../arm-none-eabi/lib/thumb/v7e-m/fpv4-sp/softfp/libc_nano.a(lib_a-signal.o)
 .text._init_signal
                0x0000000000000000        0xc /home/jalcim/gcc_toolchain/gcc-arm-none-eabi-7-2018-q2-update/bin/../lib/gcc/arm-none-eabi/7.3.1/../../../../arm-none-eabi/lib/thumb/v7e-m/fpv4-sp/softfp/libc_nano.a(lib_a-signal.o)
 .text.__sigtramp
                0x0000000000000000       0x10 /home/jalcim/gcc_toolchain/gcc-arm-none-eabi-7-2018-q2-update/bin/../lib/gcc/arm-none-eabi/7.3.1/../../../../arm-none-eabi/lib/thumb/v7e-m/fpv4-sp/softfp/libc_nano.a(lib_a-signal.o)
 .text          0x0000000000000000        0x0 /home/jalcim/gcc_toolchain/gcc-arm-none-eabi-7-2018-q2-update/bin/../lib/gcc/arm-none-eabi/7.3.1/../../../../arm-none-eabi/lib/thumb/v7e-m/fpv4-sp/softfp/libc_nano.a(lib_a-signalr.o)
 .data          0x0000000000000000        0x0 /home/jalcim/gcc_toolchain/gcc-arm-none-eabi-7-2018-q2-update/bin/../lib/gcc/arm-none-eabi/7.3.1/../../../../arm-none-eabi/lib/thumb/v7e-m/fpv4-sp/softfp/libc_nano.a(lib_a-signalr.o)
 .bss           0x0000000000000000        0x0 /home/jalcim/gcc_toolchain/gcc-arm-none-eabi-7-2018-q2-update/bin/../lib/gcc/arm-none-eabi/7.3.1/../../../../arm-none-eabi/lib/thumb/v7e-m/fpv4-sp/softfp/libc_nano.a(lib_a-signalr.o)
 .text          0x0000000000000000       0x14 /home/jalcim/gcc_toolchain/gcc-arm-none-eabi-7-2018-q2-update/bin/../lib/gcc/arm-none-eabi/7.3.1/../../../../arm-none-eabi/lib/thumb/v7e-m/fpv4-sp/softfp/libc_nano.a(lib_a-strcmp.o)
 .data          0x0000000000000000        0x0 /home/jalcim/gcc_toolchain/gcc-arm-none-eabi-7-2018-q2-update/bin/../lib/gcc/arm-none-eabi/7.3.1/../../../../arm-none-eabi/lib/thumb/v7e-m/fpv4-sp/softfp/libc_nano.a(lib_a-strcmp.o)
 .bss           0x0000000000000000        0x0 /home/jalcim/gcc_toolchain/gcc-arm-none-eabi-7-2018-q2-update/bin/../lib/gcc/arm-none-eabi/7.3.1/../../../../arm-none-eabi/lib/thumb/v7e-m/fpv4-sp/softfp/libc_nano.a(lib_a-strcmp.o)
 .debug_frame   0x0000000000000000       0x20 /home/jalcim/gcc_toolchain/gcc-arm-none-eabi-7-2018-q2-update/bin/../lib/gcc/arm-none-eabi/7.3.1/../../../../arm-none-eabi/lib/thumb/v7e-m/fpv4-sp/softfp/libc_nano.a(lib_a-strcmp.o)
 .ARM.attributes
                0x0000000000000000       0x20 /home/jalcim/gcc_toolchain/gcc-arm-none-eabi-7-2018-q2-update/bin/../lib/gcc/arm-none-eabi/7.3.1/../../../../arm-none-eabi/lib/thumb/v7e-m/fpv4-sp/softfp/libc_nano.a(lib_a-strcmp.o)
 .text          0x0000000000000000        0x0 /home/jalcim/gcc_toolchain/gcc-arm-none-eabi-7-2018-q2-update/bin/../lib/gcc/arm-none-eabi/7.3.1/../../../../arm-none-eabi/lib/thumb/v7e-m/fpv4-sp/softfp/libc_nano.a(lib_a-wctomb_r.o)
 .data          0x0000000000000000        0x0 /home/jalcim/gcc_toolchain/gcc-arm-none-eabi-7-2018-q2-update/bin/../lib/gcc/arm-none-eabi/7.3.1/../../../../arm-none-eabi/lib/thumb/v7e-m/fpv4-sp/softfp/libc_nano.a(lib_a-wctomb_r.o)
 .bss           0x0000000000000000        0x0 /home/jalcim/gcc_toolchain/gcc-arm-none-eabi-7-2018-q2-update/bin/../lib/gcc/arm-none-eabi/7.3.1/../../../../arm-none-eabi/lib/thumb/v7e-m/fpv4-sp/softfp/libc_nano.a(lib_a-wctomb_r.o)
 .text._wctomb_r
                0x0000000000000000       0x24 /home/jalcim/gcc_toolchain/gcc-arm-none-eabi-7-2018-q2-update/bin/../lib/gcc/arm-none-eabi/7.3.1/../../../../arm-none-eabi/lib/thumb/v7e-m/fpv4-sp/softfp/libc_nano.a(lib_a-wctomb_r.o)
 .text          0x0000000000000000        0x0 /home/jalcim/gcc_toolchain/gcc-arm-none-eabi-7-2018-q2-update/bin/../lib/gcc/arm-none-eabi/7.3.1/../../../../arm-none-eabi/lib/thumb/v7e-m/fpv4-sp/softfp/libc_nano.a(lib_a-ctype_.o)
 .data          0x0000000000000000        0x0 /home/jalcim/gcc_toolchain/gcc-arm-none-eabi-7-2018-q2-update/bin/../lib/gcc/arm-none-eabi/7.3.1/../../../../arm-none-eabi/lib/thumb/v7e-m/fpv4-sp/softfp/libc_nano.a(lib_a-ctype_.o)
 .bss           0x0000000000000000        0x0 /home/jalcim/gcc_toolchain/gcc-arm-none-eabi-7-2018-q2-update/bin/../lib/gcc/arm-none-eabi/7.3.1/../../../../arm-none-eabi/lib/thumb/v7e-m/fpv4-sp/softfp/libc_nano.a(lib_a-ctype_.o)
 .text          0x0000000000000000        0x0 /home/jalcim/gcc_toolchain/gcc-arm-none-eabi-7-2018-q2-update/bin/../lib/gcc/arm-none-eabi/7.3.1/../../../../arm-none-eabi/lib/thumb/v7e-m/fpv4-sp/softfp/libc_nano.a(lib_a-fstatr.o)
 .data          0x0000000000000000        0x0 /home/jalcim/gcc_toolchain/gcc-arm-none-eabi-7-2018-q2-update/bin/../lib/gcc/arm-none-eabi/7.3.1/../../../../arm-none-eabi/lib/thumb/v7e-m/fpv4-sp/softfp/libc_nano.a(lib_a-fstatr.o)
 .bss           0x0000000000000000        0x0 /home/jalcim/gcc_toolchain/gcc-arm-none-eabi-7-2018-q2-update/bin/../lib/gcc/arm-none-eabi/7.3.1/../../../../arm-none-eabi/lib/thumb/v7e-m/fpv4-sp/softfp/libc_nano.a(lib_a-fstatr.o)
 .text          0x0000000000000000        0x0 /home/jalcim/gcc_toolchain/gcc-arm-none-eabi-7-2018-q2-update/bin/../lib/gcc/arm-none-eabi/7.3.1/../../../../arm-none-eabi/lib/thumb/v7e-m/fpv4-sp/softfp/libc_nano.a(lib_a-isattyr.o)
 .data          0x0000000000000000        0x0 /home/jalcim/gcc_toolchain/gcc-arm-none-eabi-7-2018-q2-update/bin/../lib/gcc/arm-none-eabi/7.3.1/../../../../arm-none-eabi/lib/thumb/v7e-m/fpv4-sp/softfp/libc_nano.a(lib_a-isattyr.o)
 .bss           0x0000000000000000        0x0 /home/jalcim/gcc_toolchain/gcc-arm-none-eabi-7-2018-q2-update/bin/../lib/gcc/arm-none-eabi/7.3.1/../../../../arm-none-eabi/lib/thumb/v7e-m/fpv4-sp/softfp/libc_nano.a(lib_a-isattyr.o)
 .text          0x0000000000000000        0x0 /home/jalcim/gcc_toolchain/gcc-arm-none-eabi-7-2018-q2-update/bin/../lib/gcc/arm-none-eabi/7.3.1/../../../../arm-none-eabi/lib/thumb/v7e-m/fpv4-sp/softfp/libc_nano.a(lib_a-nano-msizer.o)
 .data          0x0000000000000000        0x0 /home/jalcim/gcc_toolchain/gcc-arm-none-eabi-7-2018-q2-update/bin/../lib/gcc/arm-none-eabi/7.3.1/../../../../arm-none-eabi/lib/thumb/v7e-m/fpv4-sp/softfp/libc_nano.a(lib_a-nano-msizer.o)
 .bss           0x0000000000000000        0x0 /home/jalcim/gcc_toolchain/gcc-arm-none-eabi-7-2018-q2-update/bin/../lib/gcc/arm-none-eabi/7.3.1/../../../../arm-none-eabi/lib/thumb/v7e-m/fpv4-sp/softfp/libc_nano.a(lib_a-nano-msizer.o)
 .text._malloc_usable_size_r
                0x0000000000000000       0x10 /home/jalcim/gcc_toolchain/gcc-arm-none-eabi-7-2018-q2-update/bin/../lib/gcc/arm-none-eabi/7.3.1/../../../../arm-none-eabi/lib/thumb/v7e-m/fpv4-sp/softfp/libc_nano.a(lib_a-nano-msizer.o)
 .debug_frame   0x0000000000000000       0x20 /home/jalcim/gcc_toolchain/gcc-arm-none-eabi-7-2018-q2-update/bin/../lib/gcc/arm-none-eabi/7.3.1/../../../../arm-none-eabi/lib/thumb/v7e-m/fpv4-sp/softfp/libc_nano.a(lib_a-nano-msizer.o)
 .ARM.attributes
                0x0000000000000000       0x32 /home/jalcim/gcc_toolchain/gcc-arm-none-eabi-7-2018-q2-update/bin/../lib/gcc/arm-none-eabi/7.3.1/../../../../arm-none-eabi/lib/thumb/v7e-m/fpv4-sp/softfp/libc_nano.a(lib_a-nano-msizer.o)
 .data          0x0000000000000000        0x0 /home/jalcim/gcc_toolchain/gcc-arm-none-eabi-7-2018-q2-update/bin/../lib/gcc/arm-none-eabi/7.3.1/thumb/v7e-m/fpv4-sp/softfp/libgcc.a(_lshrdi3.o)
 .bss           0x0000000000000000        0x0 /home/jalcim/gcc_toolchain/gcc-arm-none-eabi-7-2018-q2-update/bin/../lib/gcc/arm-none-eabi/7.3.1/thumb/v7e-m/fpv4-sp/softfp/libgcc.a(_lshrdi3.o)
 .data          0x0000000000000000        0x0 /home/jalcim/gcc_toolchain/gcc-arm-none-eabi-7-2018-q2-update/bin/../lib/gcc/arm-none-eabi/7.3.1/thumb/v7e-m/fpv4-sp/softfp/libgcc.a(_ashldi3.o)
 .bss           0x0000000000000000        0x0 /home/jalcim/gcc_toolchain/gcc-arm-none-eabi-7-2018-q2-update/bin/../lib/gcc/arm-none-eabi/7.3.1/thumb/v7e-m/fpv4-sp/softfp/libgcc.a(_ashldi3.o)
 .data          0x0000000000000000        0x0 /home/jalcim/gcc_toolchain/gcc-arm-none-eabi-7-2018-q2-update/bin/../lib/gcc/arm-none-eabi/7.3.1/thumb/v7e-m/fpv4-sp/softfp/libgcc.a(_aeabi_uldivmod.o)
 .bss           0x0000000000000000        0x0 /home/jalcim/gcc_toolchain/gcc-arm-none-eabi-7-2018-q2-update/bin/../lib/gcc/arm-none-eabi/7.3.1/thumb/v7e-m/fpv4-sp/softfp/libgcc.a(_aeabi_uldivmod.o)
 .data          0x0000000000000000        0x0 /home/jalcim/gcc_toolchain/gcc-arm-none-eabi-7-2018-q2-update/bin/../lib/gcc/arm-none-eabi/7.3.1/thumb/v7e-m/fpv4-sp/softfp/libgcc.a(_udivmoddi4.o)
 .bss           0x0000000000000000        0x0 /home/jalcim/gcc_toolchain/gcc-arm-none-eabi-7-2018-q2-update/bin/../lib/gcc/arm-none-eabi/7.3.1/thumb/v7e-m/fpv4-sp/softfp/libgcc.a(_udivmoddi4.o)
 .ARM.extab     0x0000000000000000        0x0 /home/jalcim/gcc_toolchain/gcc-arm-none-eabi-7-2018-q2-update/bin/../lib/gcc/arm-none-eabi/7.3.1/thumb/v7e-m/fpv4-sp/softfp/libgcc.a(_udivmoddi4.o)
 .data          0x0000000000000000        0x0 /home/jalcim/gcc_toolchain/gcc-arm-none-eabi-7-2018-q2-update/bin/../lib/gcc/arm-none-eabi/7.3.1/thumb/v7e-m/fpv4-sp/softfp/libgcc.a(_dvmd_tls.o)
 .bss           0x0000000000000000        0x0 /home/jalcim/gcc_toolchain/gcc-arm-none-eabi-7-2018-q2-update/bin/../lib/gcc/arm-none-eabi/7.3.1/thumb/v7e-m/fpv4-sp/softfp/libgcc.a(_dvmd_tls.o)

Memory Configuration

Name             Origin             Length             Attributes
m_interrupts     0x000000001ffe0000 0x0000000000000280 xr
m_text           0x000000001ffe0280 0x000000000002fd70 xr
m_emul           0x000000002000fff0 0x0000000000000010 xr
m_data           0x0000000020010000 0x000000000000cfc0 rw
m_debug          0x000000002001cfc0 0x0000000000000040 rw
m_data_2         0x000000002001d000 0x0000000000002000 rw
*default*        0x0000000000000000 0xffffffffffffffff

Linker script and memory map

                0x0000000000000001                __ram_vector_table__ = 0x1
LOAD build_mx8qx_b0/devices/startup.o
LOAD build_mx8qx_b0/devices/memops.o
LOAD build_mx8qx_b0/devices/MX8QX/system_MX8QX.o
LOAD build_mx8qx_b0/devices/MX8QX/handlers_MX8QX.o
LOAD build_mx8qx_b0/devices/MX8QX/gcc/startup_MX8QX.o
LOAD build_mx8qx_b0/main/main.o
LOAD build_mx8qx_b0/main/main_common.o
LOAD build_mx8qx_b0/main/boot.o
LOAD build_mx8qx_b0/main/debug.o
LOAD build_mx8qx_b0/main/rpc.o
LOAD build_mx8qx_b0/main/ipc_srv.o
LOAD build_mx8qx_b0/main/ipc.o
LOAD build_mx8qx_b0/main/monitor.o
LOAD build_mx8qx_b0/utilities/newlib_stubs.o
LOAD build_mx8qx_b0/soc/MX8QX/soc.o
LOAD build_mx8qx_b0/soc/common/soc_common.o
LOAD build_mx8qx_b0/drivers/analog/fsl_analog.o
LOAD build_mx8qx_b0/drivers/analog/fsl_analog_refgen.o
LOAD build_mx8qx_b0/drivers/analog/fsl_analog_fbb.o
LOAD build_mx8qx_b0/drivers/csr/fsl_csr.o
LOAD build_mx8qx_b0/drivers/dsc/fsl_dsc.o
LOAD build_mx8qx_b0/drivers/dsc/fsl_dsc_ai.o
LOAD build_mx8qx_b0/drivers/pad/fsl_pad.o
LOAD build_mx8qx_b0/drivers/sysctr/fsl_sysctr.o
LOAD build_mx8qx_b0/drivers/xrdc2/fsl_xrdc2.o
LOAD build_mx8qx_b0/drivers/mtr/fsl_mtr.o
LOAD build_mx8qx_b0/drivers/seco/v2/fsl_seco.o
LOAD build_mx8qx_b0/drivers/gpio/fsl_gpio.o
LOAD build_mx8qx_b0/drivers/lmem/fsl_lmem_cache.o
LOAD build_mx8qx_b0/drivers/lpi2c/fsl_lpi2c.o
LOAD build_mx8qx_b0/drivers/lpit/fsl_lpit.o
LOAD build_mx8qx_b0/drivers/lpcg/fsl_lpcg.o
LOAD build_mx8qx_b0/drivers/lpuart/fsl_lpuart.o
LOAD build_mx8qx_b0/drivers/mu/fsl_mu.o
LOAD build_mx8qx_b0/drivers/otp/fsl_otp.o
LOAD build_mx8qx_b0/drivers/stc/fsl_stc.o
LOAD build_mx8qx_b0/drivers/systick/fsl_systick.o
LOAD build_mx8qx_b0/drivers/drc/fsl_drc.o
LOAD build_mx8qx_b0/drivers/drc/fsl_drc_dqs2dq.o
LOAD build_mx8qx_b0/drivers/wdog32/fsl_wdog32.o
LOAD build_mx8qx_b0/drivers/snvs/v2/fsl_snvs.o
LOAD build_mx8qx_b0/drivers/pmic/fsl_pmic.o
LOAD build_mx8qx_b0/drivers/pmic/pf8100/fsl_pf8100.o
LOAD build_mx8qx_b0/drivers/pmic/pf100/fsl_pf100.o
LOAD build_mx8qx_b0/ss/inf/inf.o
LOAD build_mx8qx_b0/ss/sc/v2/ss.o
LOAD build_mx8qx_b0/ss/adma/v2/ss.o
LOAD build_mx8qx_b0/ss/vpu/v4/ss.o
LOAD build_mx8qx_b0/ss/lsio/v2/ss.o
LOAD build_mx8qx_b0/ss/a35/v1/ss.o
LOAD build_mx8qx_b0/ss/base/ss.o
LOAD build_mx8qx_b0/ss/conn/v1/ss.o
LOAD build_mx8qx_b0/ss/csi/v1/ss.o
LOAD build_mx8qx_b0/ss/db/v2/ss.o
LOAD build_mx8qx_b0/ss/dc/v1/ss.o
LOAD build_mx8qx_b0/ss/drc/v2/ss.o
LOAD build_mx8qx_b0/ss/gpu/v2/ss.o
LOAD build_mx8qx_b0/ss/hsio/v2/ss.o
LOAD build_mx8qx_b0/ss/img/v1/ss.o
LOAD build_mx8qx_b0/ss/m4/v1/ss.o
LOAD build_mx8qx_b0/ss/mipi/v2/ss.o
LOAD build_mx8qx_b0/ss/pi/v1/ss.o
LOAD build_mx8qx_b0/board/mx8qx_mek/board.o
LOAD build_mx8qx_b0/board/board_common.o
LOAD build_mx8qx_b0/board/board.o
LOAD build_mx8qx_b0/board/pmic.o
LOAD build_mx8qx_b0/svc/irq/svc.o
LOAD build_mx8qx_b0/svc/misc/svc.o
LOAD build_mx8qx_b0/svc/pad/svc.o
LOAD build_mx8qx_b0/svc/pm/svc.o
LOAD build_mx8qx_b0/svc/rm/svc.o
LOAD build_mx8qx_b0/svc/timer/svc.o
LOAD build_mx8qx_b0/svc/irq/rpc_srv.o
LOAD build_mx8qx_b0/svc/misc/rpc_srv.o
LOAD build_mx8qx_b0/svc/pad/rpc_srv.o
LOAD build_mx8qx_b0/svc/pm/rpc_srv.o
LOAD build_mx8qx_b0/svc/rm/rpc_srv.o
LOAD build_mx8qx_b0/svc/timer/rpc_srv.o
LOAD build_mx8qx_b0/svc/irq/rpc_clnt.o
LOAD build_mx8qx_b0/svc/misc/rpc_clnt.o
LOAD build_mx8qx_b0/svc/pad/rpc_clnt.o
LOAD build_mx8qx_b0/svc/pm/rpc_clnt.o
LOAD build_mx8qx_b0/svc/rm/rpc_clnt.o
LOAD build_mx8qx_b0/svc/timer/rpc_clnt.o
LOAD /home/jalcim/gcc_toolchain/gcc-arm-none-eabi-7-2018-q2-update/bin/../lib/gcc/arm-none-eabi/7.3.1/../../../../arm-none-eabi/lib/thumb/v7e-m/fpv4-sp/softfp/libc_nano.a
LOAD /home/jalcim/gcc_toolchain/gcc-arm-none-eabi-7-2018-q2-update/bin/../lib/gcc/arm-none-eabi/7.3.1/thumb/v7e-m/fpv4-sp/softfp/libgcc.a
                0x0000000000001000                HEAP_SIZE = DEFINED (__heap_size__)?__heap_size__:0x1000
                0x0000000000000800                STACK_SIZE = DEFINED (__stack_size__)?__stack_size__:0x800
                0x0000000000000010                EMUL_SIZE = DEFINED (__emul_size__)?__emul_size__:0x10
                0x0000000000000040                DEBUG_DATA_SIZE = DEFINED (__debug_data_size__)?__debug_data_size__:0x40
                0x000000000000000b                GUARD_LOG2 = DEFINED (__guard_log2__)?__guard_log2__:0xb
                0x0000000000000800                GUARD_SIZE = (0x1 << GUARD_LOG2)

.interrupts     0x000000001ffe0000      0x250
                0x000000001ffe0000                . = ALIGN (0x80)
                0x000000001ffe0000                __VECTOR_TABLE = .
 *(.isr_vector)
 .isr_vector    0x000000001ffe0000      0x250 build_mx8qx_b0/devices/MX8QX/gcc/startup_MX8QX.o
                0x000000001ffe0000                __isr_vector
                0x000000001ffe0250                . = ALIGN (0x8)
                0x000000001ffe0000                __VECTOR_RAM = __VECTOR_TABLE
                0x0000000000000000                __RAM_VECTOR_TABLE_SIZE_BYTES = 0x0

.text           0x000000001ffe0280    0x192bc
                0x000000001ffe0280                . = ALIGN (0x8)
 *(.text)
 .text          0x000000001ffe0280       0x7c build_mx8qx_b0/devices/memops.o
                0x000000001ffe0280                memcpy_unrolled_64
                0x000000001ffe02a0                memset_unrolled_64
                0x000000001ffe02d0                memset_unrolled_28
                0x000000001ffe02f0                memset_unrolled_8
 .text          0x000000001ffe02fc      0x1dc build_mx8qx_b0/devices/MX8QX/gcc/startup_MX8QX.o
                0x000000001ffe02fc                Reset_Handler
                0x000000001ffe0448                NMI_Handler_Shim
                0x000000001ffe045c                HardFault_Handler_Shim
                0x000000001ffe0470                MemManage_Handler_Shim
                0x000000001ffe0484                BusFault_Handler_Shim
                0x000000001ffe0498                UsageFault_Handler_Shim
                0x000000001ffe04ac                MCM_IRQHandler_Shim
                0x000000001ffe04c0                LPIT_SCU_IRQHandler_Shim
                0x000000001ffe04d2                INTMUX0_3_IRQHandler
                0x000000001ffe04d2                IOMUX25_IRQHandler
                0x000000001ffe04d2                DSC_RX_HDMI_IRQHandler
                0x000000001ffe04d2                DebugMon_Handler
                0x000000001ffe04d2                INTMUX0_12_IRQHandler
                0x000000001ffe04d2                DSC_DRC_1_IRQHandler
                0x000000001ffe04d2                LPUART_SCU_IRQHandler
                0x000000001ffe04d2                SysTick_Handler
                0x000000001ffe04d2                DSC21_IRQHandler
                0x000000001ffe04d2                PendSV_Handler
                0x000000001ffe04d2                CAAM_IRQ1_IRQHandler
                0x000000001ffe04d2                TPM0_IRQHandler
                0x000000001ffe04d2                IOMUX15_IRQHandler
                0x000000001ffe04d2                LPI2C0_IRQHandler
                0x000000001ffe04d2                PMIC_EarlyWarning_IRQHandler
                0x000000001ffe04d2                IOMUX18_IRQHandler
                0x000000001ffe04d2                SYSCTR_CMP3_IRQHandler
                0x000000001ffe04d2                SNVS_Periodic_IRQHandler
                0x000000001ffe04d2                IOMUX23_IRQHandler
                0x000000001ffe04d2                IOMUX31_IRQHandler
                0x000000001ffe04d2                DSC_Connectivity_IRQHandler
                0x000000001ffe04d2                IOMUX19_IRQHandler
                0x000000001ffe04d2                MU0_B1_IRQHandler
                0x000000001ffe04d2                INTMUX0_15_IRQHandler
                0x000000001ffe04d2                IOMUX21_IRQHandler
                0x000000001ffe04d2                IOMUX26_IRQHandler
                0x000000001ffe04d2                SECO_MU_IRQHandler
                0x000000001ffe04d2                IOMUX29_IRQHandler
                0x000000001ffe04d2                DSC_MIPI_CSI_0_IRQHandler
                0x000000001ffe04d2                IOMUX30_IRQHandler
                0x000000001ffe04d2                INTMUX0_1_IRQHandler
                0x000000001ffe04d2                DSC_DI_LVDS_0_IRQHandler
                0x000000001ffe04d2                DSC_DI_MIPI_0_IRQHandler
                0x000000001ffe04d2                MU0_B3_IRQHandler
                0x000000001ffe04d2                DSC_DI_HDMI_IRQHandler
                0x000000001ffe04d2                DSC_DC_0_IRQHandler
                0x000000001ffe04d2                OCOTP_Bank0_IRQHandler
                0x000000001ffe04d2                INTMUX0_6_IRQHandler
                0x000000001ffe04d2                CAAM_IRQ3_IRQHandler
                0x000000001ffe04d2                SYSCTR_CMP2_IRQHandler
                0x000000001ffe04d2                DSC_VPUCORE_IRQHandler
                0x000000001ffe04d2                DSC03_IRQHandler
                0x000000001ffe04d2                INTMUX0_5_IRQHandler
                0x000000001ffe04d2                SNVS_Alarm_IRQHandler
                0x000000001ffe04d2                DSC_CCI_IRQHandler
                0x000000001ffe04d2                INTMUX0_0_IRQHandler
                0x000000001ffe04d2                INTMUX0_2_IRQHandler
                0x000000001ffe04d2                INTMUX0_11_IRQHandler
                0x000000001ffe04d2                INTMUX0_7_IRQHandler
                0x000000001ffe04d2                DSC_DC_1_IRQHandler
                0x000000001ffe04d2                IOMUX17_IRQHandler
                0x000000001ffe04d2                IOMUX13_IRQHandler
                0x000000001ffe04d2                SECO_MU_NMI_IRQHandler
                0x000000001ffe04d2                IOMUX20_IRQHandler
                0x000000001ffe04d2                DSC_Imaging_IRQHandler
                0x000000001ffe04d2                SVC_Handler
                0x000000001ffe04d2                DSC_MIPI_CSI_1_IRQHandler
                0x000000001ffe04d2                DSC_DB_IRQHandler
                0x000000001ffe04d2                DSC_DI_MIPI_1_IRQHandler
                0x000000001ffe04d2                CAAM_RTIC_IRQHandler
                0x000000001ffe04d2                INTMUX0_8_IRQHandler
                0x000000001ffe04d2                INTMUX0_9_IRQHandler
                0x000000001ffe04d2                INTMUX0_10_IRQHandler
                0x000000001ffe04d2                DSC_GPU_1_IRQHandler
                0x000000001ffe04d2                IOMUX24_IRQHandler
                0x000000001ffe04d2                INTMUX0_13_IRQHandler
                0x000000001ffe04d2                IOMUX28_IRQHandler
                0x000000001ffe04d2                DSC_CM4_1_IRQHandler
                0x000000001ffe04d2                IOMUX14_IRQHandler
                0x000000001ffe04d2                INTMUX0_4_IRQHandler
                0x000000001ffe04d2                CAAM_IRQ2_IRQHandler
                0x000000001ffe04d2                DSC_DI_LVDS_1_IRQHandler
                0x000000001ffe04d2                MU0_B0_IRQHandler
                0x000000001ffe04d2                INTMUX0_14_IRQHandler
                0x000000001ffe04d2                MU1_A_IRQHandler
                0x000000001ffe04d2                CAAM_Error_IRQHandler
                0x000000001ffe04d2                CAAM_IRQ0_IRQHandler
                0x000000001ffe04d2                MU0_B2_IRQHandler
                0x000000001ffe04d2                IOMUX27_IRQHandler
                0x000000001ffe04d2                OCOTP_Bank1_IRQHandler
                0x000000001ffe04d2                DSC_DBLOG_IRQHandler
                0x000000001ffe04d2                DSC_HSIO_IRQHandler
                0x000000001ffe04d2                DSC_CA72_IRQHandler
                0x000000001ffe04d2                IOMUX22_IRQHandler
                0x000000001ffe04d2                IOMUX16_IRQHandler
                0x000000001ffe04d2                DSC_DMA_IRQHandler
 *fill*         0x000000001ffe04d8        0x8 
 .text          0x000000001ffe04e0        0xc build_mx8qx_b0/board/board.o
                0x000000001ffe04e0                board_libc_init_array
 *fill*         0x000000001ffe04ec        0x4 
 .text          0x000000001ffe04f0       0xa0 /home/jalcim/gcc_toolchain/gcc-arm-none-eabi-7-2018-q2-update/bin/../lib/gcc/arm-none-eabi/7.3.1/../../../../arm-none-eabi/lib/thumb/v7e-m/fpv4-sp/softfp/libc_nano.a(lib_a-memchr.o)
                0x000000001ffe04f0                memchr
 .text          0x000000001ffe0590       0x10 /home/jalcim/gcc_toolchain/gcc-arm-none-eabi-7-2018-q2-update/bin/../lib/gcc/arm-none-eabi/7.3.1/../../../../arm-none-eabi/lib/thumb/v7e-m/fpv4-sp/softfp/libc_nano.a(lib_a-strlen.o)
                0x000000001ffe0590                strlen
 .text          0x000000001ffe05a0       0x18 /home/jalcim/gcc_toolchain/gcc-arm-none-eabi-7-2018-q2-update/bin/../lib/gcc/arm-none-eabi/7.3.1/thumb/v7e-m/fpv4-sp/softfp/libgcc.a(_lshrdi3.o)
                0x000000001ffe05a0                __aeabi_llsr
                0x000000001ffe05a0                __lshrdi3
 .text          0x000000001ffe05b8       0x18 /home/jalcim/gcc_toolchain/gcc-arm-none-eabi-7-2018-q2-update/bin/../lib/gcc/arm-none-eabi/7.3.1/thumb/v7e-m/fpv4-sp/softfp/libgcc.a(_ashldi3.o)
                0x000000001ffe05b8                __ashldi3
                0x000000001ffe05b8                __aeabi_llsl
 .text          0x000000001ffe05d0       0x30 /home/jalcim/gcc_toolchain/gcc-arm-none-eabi-7-2018-q2-update/bin/../lib/gcc/arm-none-eabi/7.3.1/thumb/v7e-m/fpv4-sp/softfp/libgcc.a(_aeabi_uldivmod.o)
                0x000000001ffe05d0                __aeabi_uldivmod
 .text          0x000000001ffe0600      0x2cc /home/jalcim/gcc_toolchain/gcc-arm-none-eabi-7-2018-q2-update/bin/../lib/gcc/arm-none-eabi/7.3.1/thumb/v7e-m/fpv4-sp/softfp/libgcc.a(_udivmoddi4.o)
                0x000000001ffe0600                __udivmoddi4
 .text          0x000000001ffe08cc        0x4 /home/jalcim/gcc_toolchain/gcc-arm-none-eabi-7-2018-q2-update/bin/../lib/gcc/arm-none-eabi/7.3.1/thumb/v7e-m/fpv4-sp/softfp/libgcc.a(_dvmd_tls.o)
                0x000000001ffe08cc                __aeabi_ldiv0
                0x000000001ffe08cc                __aeabi_idiv0
 *(.text*)
 .text.init_data_bss
                0x000000001ffe08d0       0x7c build_mx8qx_b0/devices/startup.o
                0x000000001ffe08d0                init_data_bss
 .text.SystemEventTrigger
                0x000000001ffe094c       0x2c build_mx8qx_b0/devices/MX8QX/system_MX8QX.o
                0x000000001ffe094c                SystemEventTrigger
 .text.SystemEnterCS
                0x000000001ffe0978       0x20 build_mx8qx_b0/devices/MX8QX/system_MX8QX.o
                0x000000001ffe0978                SystemEnterCS
 .text.SystemExitCS
                0x000000001ffe0998       0x1c build_mx8qx_b0/devices/MX8QX/system_MX8QX.o
                0x000000001ffe0998                SystemExitCS
 .text.SystemGetActiveException
                0x000000001ffe09b4       0x10 build_mx8qx_b0/devices/MX8QX/system_MX8QX.o
                0x000000001ffe09b4                SystemGetActiveException
 .text.CommonFault_Handler
                0x000000001ffe09c4       0x34 build_mx8qx_b0/devices/MX8QX/system_MX8QX.o
                0x000000001ffe09c4                CommonFault_Handler
 .text.HardFault_Handler
                0x000000001ffe09f8        0x4 build_mx8qx_b0/devices/MX8QX/system_MX8QX.o
                0x000000001ffe09f8                HardFault_Handler
 .text.UsageFault_Handler
                0x000000001ffe09fc        0xc build_mx8qx_b0/devices/MX8QX/system_MX8QX.o
                0x000000001ffe09fc                UsageFault_Handler
 .text.BusFault_Handler
                0x000000001ffe0a08        0x4 build_mx8qx_b0/devices/MX8QX/system_MX8QX.o
                0x000000001ffe0a08                BusFault_Handler
 .text.MemManage_Handler
                0x000000001ffe0a0c        0x4 build_mx8qx_b0/devices/MX8QX/system_MX8QX.o
                0x000000001ffe0a0c                MemManage_Handler
 .text.SystemInit
                0x000000001ffe0a10      0x414 build_mx8qx_b0/devices/MX8QX/system_MX8QX.o
                0x000000001ffe0a10                SystemInit
 .text.SystemPrepareLPM
                0x000000001ffe0e24       0xb4 build_mx8qx_b0/devices/MX8QX/system_MX8QX.o
                0x000000001ffe0e24                SystemPrepareLPM
 .text.SystemEnterLPM
                0x000000001ffe0ed8      0x248 build_mx8qx_b0/devices/MX8QX/system_MX8QX.o
                0x000000001ffe0ed8                SystemEnterLPM
 .text.SystemExit
                0x000000001ffe1120       0x18 build_mx8qx_b0/devices/MX8QX/system_MX8QX.o
                0x000000001ffe1120                SystemExit
 .text.SystemDebugHalt
                0x000000001ffe1138       0x2c build_mx8qx_b0/devices/MX8QX/system_MX8QX.o
                0x000000001ffe1138                SystemDebugHalt
 .text.SystemDebugResume
                0x000000001ffe1164       0x1c build_mx8qx_b0/devices/MX8QX/system_MX8QX.o
                0x000000001ffe1164                SystemDebugResume
 .text.SystemTimeDelay
                0x000000001ffe1180        0x4 build_mx8qx_b0/devices/MX8QX/system_MX8QX.o
                0x000000001ffe1180                SystemTimeDelay
 .text.ss_csreq_handler_debug
                0x000000001ffe1184        0x2 build_mx8qx_b0/devices/MX8QX/handlers_MX8QX.o
 *fill*         0x000000001ffe1186        0x2 
 .text.sc_handlers_init
                0x000000001ffe1188      0x118 build_mx8qx_b0/devices/MX8QX/handlers_MX8QX.o
                0x000000001ffe1188                sc_handlers_init
 .text.DefaultISR
                0x000000001ffe12a0       0x20 build_mx8qx_b0/devices/MX8QX/handlers_MX8QX.o
                0x000000001ffe12a0                DefaultISR
 .text.NMI_IRQHandler
                0x000000001ffe12c0       0xf4 build_mx8qx_b0/devices/MX8QX/handlers_MX8QX.o
                0x000000001ffe12c0                NMI_IRQHandler
 .text.MCM_IRQHandler
                0x000000001ffe13b4       0x14 build_mx8qx_b0/devices/MX8QX/handlers_MX8QX.o
                0x000000001ffe13b4                MCM_IRQHandler
 .text.DebugWake_IRQHandler
                0x000000001ffe13c8       0x58 build_mx8qx_b0/devices/MX8QX/handlers_MX8QX.o
                0x000000001ffe13c8                DebugWake_IRQHandler
 .text.SWI_IRQHandler
                0x000000001ffe1420       0x28 build_mx8qx_b0/devices/MX8QX/handlers_MX8QX.o
                0x000000001ffe1420                SWI_IRQHandler
 .text.LPIT_SCU_IRQHandler
                0x000000001ffe1448       0x4c build_mx8qx_b0/devices/MX8QX/handlers_MX8QX.o
                0x000000001ffe1448                LPIT_SCU_IRQHandler
 .text.DSC_SCU_IRQHandler
                0x000000001ffe1494       0x14 build_mx8qx_b0/devices/MX8QX/handlers_MX8QX.o
                0x000000001ffe1494                DSC_SCU_IRQHandler
 .text.DSC_LSIO_IRQHandler
                0x000000001ffe14a8       0x14 build_mx8qx_b0/devices/MX8QX/handlers_MX8QX.o
                0x000000001ffe14a8                DSC_LSIO_IRQHandler
 .text.DSC_CM4_0_IRQHandler
                0x000000001ffe14bc       0x14 build_mx8qx_b0/devices/MX8QX/handlers_MX8QX.o
                0x000000001ffe14bc                DSC_CM4_0_IRQHandler
 .text.DSC_CA35_IRQHandler
                0x000000001ffe14d0       0x14 build_mx8qx_b0/devices/MX8QX/handlers_MX8QX.o
                0x000000001ffe14d0                DSC_CA35_IRQHandler
 .text.DSC_DRC_0_IRQHandler
                0x000000001ffe14e4       0x14 build_mx8qx_b0/devices/MX8QX/handlers_MX8QX.o
                0x000000001ffe14e4                DSC_DRC_0_IRQHandler
 .text.DSC_GPU_0_IRQHandler
                0x000000001ffe14f8       0x14 build_mx8qx_b0/devices/MX8QX/handlers_MX8QX.o
                0x000000001ffe14f8                DSC_GPU_0_IRQHandler
 .text.DSC_VPU_IRQHandler
                0x000000001ffe150c       0x14 build_mx8qx_b0/devices/MX8QX/handlers_MX8QX.o
                0x000000001ffe150c                DSC_VPU_IRQHandler
 .text.DSC_ADMA_IRQHandler
                0x000000001ffe1520       0x14 build_mx8qx_b0/devices/MX8QX/handlers_MX8QX.o
                0x000000001ffe1520                DSC_ADMA_IRQHandler
 .text.IOMUX_CommonHandler
                0x000000001ffe1534       0x4c build_mx8qx_b0/devices/MX8QX/handlers_MX8QX.o
                0x000000001ffe1534                IOMUX_CommonHandler
 .text.IOMUX0_IRQHandler
                0x000000001ffe1580        0x8 build_mx8qx_b0/devices/MX8QX/handlers_MX8QX.o
                0x000000001ffe1580                IOMUX0_IRQHandler
 .text.IOMUX1_IRQHandler
                0x000000001ffe1588        0x8 build_mx8qx_b0/devices/MX8QX/handlers_MX8QX.o
                0x000000001ffe1588                IOMUX1_IRQHandler
 .text.IOMUX2_IRQHandler
                0x000000001ffe1590        0x8 build_mx8qx_b0/devices/MX8QX/handlers_MX8QX.o
                0x000000001ffe1590                IOMUX2_IRQHandler
 .text.IOMUX3_IRQHandler
                0x000000001ffe1598        0x8 build_mx8qx_b0/devices/MX8QX/handlers_MX8QX.o
                0x000000001ffe1598                IOMUX3_IRQHandler
 .text.IOMUX4_IRQHandler
                0x000000001ffe15a0        0x8 build_mx8qx_b0/devices/MX8QX/handlers_MX8QX.o
                0x000000001ffe15a0                IOMUX4_IRQHandler
 .text.IOMUX5_IRQHandler
                0x000000001ffe15a8        0x8 build_mx8qx_b0/devices/MX8QX/handlers_MX8QX.o
                0x000000001ffe15a8                IOMUX5_IRQHandler
 .text.IOMUX6_IRQHandler
                0x000000001ffe15b0        0x8 build_mx8qx_b0/devices/MX8QX/handlers_MX8QX.o
                0x000000001ffe15b0                IOMUX6_IRQHandler
 .text.IOMUX7_IRQHandler
                0x000000001ffe15b8        0x8 build_mx8qx_b0/devices/MX8QX/handlers_MX8QX.o
                0x000000001ffe15b8                IOMUX7_IRQHandler
 .text.IOMUX8_IRQHandler
                0x000000001ffe15c0        0x8 build_mx8qx_b0/devices/MX8QX/handlers_MX8QX.o
                0x000000001ffe15c0                IOMUX8_IRQHandler
 .text.IOMUX9_IRQHandler
                0x000000001ffe15c8        0x8 build_mx8qx_b0/devices/MX8QX/handlers_MX8QX.o
                0x000000001ffe15c8                IOMUX9_IRQHandler
 .text.IOMUX10_IRQHandler
                0x000000001ffe15d0        0x8 build_mx8qx_b0/devices/MX8QX/handlers_MX8QX.o
                0x000000001ffe15d0                IOMUX10_IRQHandler
 .text.IOMUX11_IRQHandler
                0x000000001ffe15d8        0x8 build_mx8qx_b0/devices/MX8QX/handlers_MX8QX.o
                0x000000001ffe15d8                IOMUX11_IRQHandler
 .text.IOMUX12_IRQHandler
                0x000000001ffe15e0        0x8 build_mx8qx_b0/devices/MX8QX/handlers_MX8QX.o
                0x000000001ffe15e0                IOMUX12_IRQHandler
 .text.power_up_cpus
                0x000000001ffe15e8       0x54 build_mx8qx_b0/main/main.o
 .text.start_cpus
                0x000000001ffe163c       0xcc build_mx8qx_b0/main/main.o
 .text.startup.main
                0x000000001ffe1708      0x344 build_mx8qx_b0/main/main.o
                0x000000001ffe1708                main
 .text.main_banners
                0x000000001ffe1a4c       0xac build_mx8qx_b0/main/main_common.o
                0x000000001ffe1a4c                main_banners
 .text.main_drv_test
                0x000000001ffe1af8       0x20 build_mx8qx_b0/main/main_common.o
                0x000000001ffe1af8                main_drv_test
 .text.main_init
                0x000000001ffe1b18      0x340 build_mx8qx_b0/main/main_common.o
                0x000000001ffe1b18                main_init
 .text.main_sc_test
                0x000000001ffe1e58       0x24 build_mx8qx_b0/main/main_common.o
                0x000000001ffe1e58                main_sc_test
 .text.main_config
                0x000000001ffe1e7c      0x284 build_mx8qx_b0/main/main_common.o
                0x000000001ffe1e7c                main_config
 .text.main_ddr
                0x000000001ffe2100       0x1e build_mx8qx_b0/main/main_common.o
                0x000000001ffe2100                main_ddr
 .text.main_dcd
                0x000000001ffe211e       0x14 build_mx8qx_b0/main/main_common.o
                0x000000001ffe211e                main_dcd
 .text.main_prep_cpu
                0x000000001ffe2132       0x62 build_mx8qx_b0/main/main_common.o
                0x000000001ffe2132                main_prep_cpu
 .text.main_dump
                0x000000001ffe2194        0x2 build_mx8qx_b0/main/main_common.o
                0x000000001ffe2194                main_dump
 *fill*         0x000000001ffe2196        0x2 
 .text.main_config_debug_uart
                0x000000001ffe2198       0x54 build_mx8qx_b0/main/main_common.o
                0x000000001ffe2198                main_config_debug_uart
 .text.main_pll_debug
                0x000000001ffe21ec       0xd8 build_mx8qx_b0/main/main_common.o
                0x000000001ffe21ec                main_pll_debug
 .text.main_exit
                0x000000001ffe22c4        0x6 build_mx8qx_b0/main/main_common.o
                0x000000001ffe22c4                main_exit
 *fill*         0x000000001ffe22ca        0x2 
 .text.boot_init
                0x000000001ffe22cc       0x8c build_mx8qx_b0/main/boot.o
                0x000000001ffe22cc                boot_init
 .text.boot_get_data
                0x000000001ffe2358       0xc0 build_mx8qx_b0/main/boot.o
                0x000000001ffe2358                boot_get_data
 .text.boot_get_img_num
                0x000000001ffe2418        0xc build_mx8qx_b0/main/boot.o
                0x000000001ffe2418                boot_get_img_num
 .text.boot_get_img_start_addr
                0x000000001ffe2424       0x24 build_mx8qx_b0/main/boot.o
                0x000000001ffe2424                boot_get_img_start_addr
 .text.boot_get_bring_up
                0x000000001ffe2448       0x28 build_mx8qx_b0/main/boot.o
                0x000000001ffe2448                boot_get_bring_up
 .text.boot_get_boot_dev
                0x000000001ffe2470       0x20 build_mx8qx_b0/main/boot.o
                0x000000001ffe2470                boot_get_boot_dev
 .text.soc_boot_dev
                0x000000001ffe2490       0xac build_mx8qx_b0/main/boot.o
                0x000000001ffe2490                soc_boot_dev
 .text.boot_get_img_n
                0x000000001ffe253c      0x1c4 build_mx8qx_b0/main/boot.o
                0x000000001ffe253c                boot_get_img_n
 .text.boot_get_img_1
                0x000000001ffe2700       0x14 build_mx8qx_b0/main/boot.o
                0x000000001ffe2700                boot_get_img_1
 .text.cprintf  0x000000001ffe2714       0x40 build_mx8qx_b0/main/debug.o
                0x000000001ffe2714                cprintf
 .text.sc_rpc_dispatch
                0x000000001ffe2754       0xcc build_mx8qx_b0/main/rpc.o
                0x000000001ffe2754                sc_rpc_dispatch
 .text.sc_ipc_async_next
                0x000000001ffe2820       0x54 build_mx8qx_b0/main/ipc_srv.o
 .text.sc_ipc_pending
                0x000000001ffe2874       0x18 build_mx8qx_b0/main/ipc_srv.o
                0x000000001ffe2874                sc_ipc_pending
 .text.sc_ipc_read_async
                0x000000001ffe288c       0x68 build_mx8qx_b0/main/ipc_srv.o
                0x000000001ffe288c                sc_ipc_read_async
 .text.sc_ipc_write_async
                0x000000001ffe28f4       0x9c build_mx8qx_b0/main/ipc_srv.o
                0x000000001ffe28f4                sc_ipc_write_async
 .text.sc_ipc_handler
                0x000000001ffe2990       0x60 build_mx8qx_b0/main/ipc_srv.o
                0x000000001ffe2990                sc_ipc_handler
 .text.clear_buf
                0x000000001ffe29f0       0x1a build_mx8qx_b0/main/monitor.o
 .text.remove_char
                0x000000001ffe2a0a        0xe build_mx8qx_b0/main/monitor.o
 .text.restore_cursor_pos
                0x000000001ffe2a18       0x1c build_mx8qx_b0/main/monitor.o
 .text.findn    0x000000001ffe2a34       0x32 build_mx8qx_b0/main/monitor.o
 *fill*         0x000000001ffe2a66        0x2 
 .text.cmd_md   0x000000001ffe2a68      0x120 build_mx8qx_b0/main/monitor.o
 .text.find     0x000000001ffe2b88       0x24 build_mx8qx_b0/main/monitor.o
 .text.mon_cpend
                0x000000001ffe2bac       0x22 build_mx8qx_b0/main/monitor.o
 *fill*         0x000000001ffe2bce        0x2 
 .text.mon_getc.constprop.11
                0x000000001ffe2bd0       0x6c build_mx8qx_b0/main/monitor.o
 .text.monitor  0x000000001ffe2c3c      0xe44 build_mx8qx_b0/main/monitor.o
                0x000000001ffe2c3c                monitor
 .text._init    0x000000001ffe3a80        0x2 build_mx8qx_b0/utilities/newlib_stubs.o
                0x000000001ffe3a80                _init
 .text._fini    0x000000001ffe3a82        0x2 build_mx8qx_b0/utilities/newlib_stubs.o
                0x000000001ffe3a82                _fini
 .text.term_emul_getc
                0x000000001ffe3a84       0x24 build_mx8qx_b0/utilities/newlib_stubs.o
                0x000000001ffe3a84                term_emul_getc
 .text.term_emul_putc
                0x000000001ffe3aa8       0x20 build_mx8qx_b0/utilities/newlib_stubs.o
                0x000000001ffe3aa8                term_emul_putc
 .text._read    0x000000001ffe3ac8       0x7c build_mx8qx_b0/utilities/newlib_stubs.o
                0x000000001ffe3ac8                _read
 .text._write   0x000000001ffe3b44       0x9c build_mx8qx_b0/utilities/newlib_stubs.o
                0x000000001ffe3b44                _write
 .text._exit    0x000000001ffe3be0       0x18 build_mx8qx_b0/utilities/newlib_stubs.o
                0x000000001ffe3be0                _exit
 .text._getpid  0x000000001ffe3bf8        0x4 build_mx8qx_b0/utilities/newlib_stubs.o
                0x000000001ffe3bf8                _getpid
 .text._kill    0x000000001ffe3bfc       0x10 build_mx8qx_b0/utilities/newlib_stubs.o
                0x000000001ffe3bfc                _kill
 .text._sbrk    0x000000001ffe3c0c       0x48 build_mx8qx_b0/utilities/newlib_stubs.o
                0x000000001ffe3c0c                _sbrk
 .text._close   0x000000001ffe3c54        0x6 build_mx8qx_b0/utilities/newlib_stubs.o
                0x000000001ffe3c54                _close
 .text._lseek   0x000000001ffe3c5a        0x4 build_mx8qx_b0/utilities/newlib_stubs.o
                0x000000001ffe3c5a                _lseek
 *fill*         0x000000001ffe3c5e        0x2 
 .text._isatty  0x000000001ffe3c60       0x18 build_mx8qx_b0/utilities/newlib_stubs.o
                0x000000001ffe3c60                _isatty
 .text._fstat   0x000000001ffe3c78        0xa build_mx8qx_b0/utilities/newlib_stubs.o
                0x000000001ffe3c78                _fstat
 .text.soc_config_sc
                0x000000001ffe3c82       0x78 build_mx8qx_b0/soc/MX8QX/soc.o
                0x000000001ffe3c82                soc_config_sc
 .text.soc_config_seco
                0x000000001ffe3cfa       0x8a build_mx8qx_b0/soc/MX8QX/soc.o
                0x000000001ffe3cfa                soc_config_seco
 .text.soc_rsrc_avail
                0x000000001ffe3d84      0x210 build_mx8qx_b0/soc/MX8QX/soc.o
                0x000000001ffe3d84                soc_rsrc_avail
 .text.soc_get_max_gpu_freq
                0x000000001ffe3f94        0xc build_mx8qx_b0/soc/MX8QX/soc.o
                0x000000001ffe3f94                soc_get_max_gpu_freq
 .text.soc_gpu_freq_hw_limited
                0x000000001ffe3fa0       0x1c build_mx8qx_b0/soc/MX8QX/soc.o
                0x000000001ffe3fa0                soc_gpu_freq_hw_limited
 .text.soc_get_clock_div
                0x000000001ffe3fbc       0x18 build_mx8qx_b0/soc/MX8QX/soc.o
                0x000000001ffe3fbc                soc_get_clock_div
 .text.soc_dsc_powerdown_anamix
                0x000000001ffe3fd4      0x120 build_mx8qx_b0/soc/MX8QX/soc.o
                0x000000001ffe3fd4                soc_dsc_powerdown_anamix
 .text.soc_dsc_powerdown_phymix
                0x000000001ffe40f4       0xa0 build_mx8qx_b0/soc/MX8QX/soc.o
                0x000000001ffe40f4                soc_dsc_powerdown_phymix
 .text.soc_dsc_powerup_anamix
                0x000000001ffe4194      0x1bc build_mx8qx_b0/soc/MX8QX/soc.o
                0x000000001ffe4194                soc_dsc_powerup_anamix
 .text.soc_dsc_powerup_phymix
                0x000000001ffe4350       0xf0 build_mx8qx_b0/soc/MX8QX/soc.o
                0x000000001ffe4350                soc_dsc_powerup_phymix
 .text.soc_setup_anamix.part.3
                0x000000001ffe4440       0x48 build_mx8qx_b0/soc/MX8QX/soc.o
 .text.soc_setup_anamix
                0x000000001ffe4488       0x4c build_mx8qx_b0/soc/MX8QX/soc.o
                0x000000001ffe4488                soc_setup_anamix
 .text.soc_init
                0x000000001ffe44d4      0x3e0 build_mx8qx_b0/soc/MX8QX/soc.o
                0x000000001ffe44d4                soc_init
 .text.soc_get_temp_trim
                0x000000001ffe48b4       0x34 build_mx8qx_b0/soc/MX8QX/soc.o
                0x000000001ffe48b4                soc_get_temp_trim
 .text.soc_mem_type
                0x000000001ffe48e8        0x4 build_mx8qx_b0/soc/MX8QX/soc.o
                0x000000001ffe48e8                soc_mem_type
 .text.soc_mem_pwr_plane
                0x000000001ffe48ec       0x7a build_mx8qx_b0/soc/MX8QX/soc.o
                0x000000001ffe48ec                soc_mem_pwr_plane
 .text.soc_pd_switchable
                0x000000001ffe4966       0x30 build_mx8qx_b0/soc/MX8QX/soc.o
                0x000000001ffe4966                soc_pd_switchable
 *fill*         0x000000001ffe4996        0x2 
 .text.soc_pd_retention
                0x000000001ffe4998       0x20 build_mx8qx_b0/soc/MX8QX/soc.o
                0x000000001ffe4998                soc_pd_retention
 .text.soc_dsc_clock_info
                0x000000001ffe49b8        0xc build_mx8qx_b0/soc/MX8QX/soc.o
                0x000000001ffe49b8                soc_dsc_clock_info
 .text.soc_slice_is_dsc
                0x000000001ffe49c4       0x10 build_mx8qx_b0/soc/MX8QX/soc.o
                0x000000001ffe49c4                soc_slice_is_dsc
 .text.soc_db_stc_config
                0x000000001ffe49d4      0x134 build_mx8qx_b0/soc/MX8QX/soc.o
                0x000000001ffe49d4                soc_db_stc_config
 .text.soc_trans_bandgap
                0x000000001ffe4b08       0x44 build_mx8qx_b0/soc/MX8QX/soc.o
                0x000000001ffe4b08                soc_trans_bandgap
 .text.soc_get_dc_avpll_info
                0x000000001ffe4b4c       0x16 build_mx8qx_b0/soc/MX8QX/soc.o
                0x000000001ffe4b4c                soc_get_dc_avpll_info
 .text.soc_init_avpll_dc
                0x000000001ffe4b62        0x2 build_mx8qx_b0/soc/MX8QX/soc.o
                0x000000001ffe4b62                soc_init_avpll_dc
 .text.soc_get_freq
                0x000000001ffe4b64       0x68 build_mx8qx_b0/soc/MX8QX/soc.o
                0x000000001ffe4b64                soc_get_freq
 .text.soc_set_freq_voltage
                0x000000001ffe4bcc       0x78 build_mx8qx_b0/soc/MX8QX/soc.o
                0x000000001ffe4bcc                soc_set_freq_voltage
 .text.soc_trans_pd
                0x000000001ffe4c44       0x30 build_mx8qx_b0/soc/MX8QX/soc.o
                0x000000001ffe4c44                soc_trans_pd
 .text.soc_set_fbb
                0x000000001ffe4c74        0x2 build_mx8qx_b0/soc/MX8QX/soc.o
                0x000000001ffe4c74                soc_set_fbb
 *fill*         0x000000001ffe4c76        0x2 
 .text.soc_perform_dco_trim
                0x000000001ffe4c78       0x50 build_mx8qx_b0/soc/MX8QX/soc.o
                0x000000001ffe4c78                soc_perform_dco_trim
 .text.soc_get_sys_if_power_mode
                0x000000001ffe4cc8       0x50 build_mx8qx_b0/soc/MX8QX/soc.o
                0x000000001ffe4cc8                soc_get_sys_if_power_mode
 .text.self_refresh_power_down_clk_disable_entry
                0x000000001ffe4d18       0xe4 build_mx8qx_b0/soc/MX8QX/soc.o
                0x000000001ffe4d18                self_refresh_power_down_clk_disable_entry
 .text.self_refresh_power_down_clk_disable_exit
                0x000000001ffe4dfc       0xb4 build_mx8qx_b0/soc/MX8QX/soc.o
                0x000000001ffe4dfc                self_refresh_power_down_clk_disable_exit
 .text.soc_drc_lpcg_setup
                0x000000001ffe4eb0       0x20 build_mx8qx_b0/soc/MX8QX/soc.o
                0x000000001ffe4eb0                soc_drc_lpcg_setup
 .text.soc_init_ddr
                0x000000001ffe4ed0       0x60 build_mx8qx_b0/soc/MX8QX/soc.o
                0x000000001ffe4ed0                soc_init_ddr
 .text.soc_get_temp_ofs
                0x000000001ffe4f30       0x2c build_mx8qx_b0/soc/MX8QX/soc.o
                0x000000001ffe4f30                soc_get_temp_ofs
 .text.soc_dpll_dco_pc
                0x000000001ffe4f5c       0x5c build_mx8qx_b0/soc/MX8QX/soc.o
                0x000000001ffe4f5c                soc_dpll_dco_pc
 .text.soc_get_hmp_sys_if_hpm_req
                0x000000001ffe4fb8       0x4c build_mx8qx_b0/soc/common/soc_common.o
 .text.soc_can_hmp_enter_lpm
                0x000000001ffe5004       0x44 build_mx8qx_b0/soc/common/soc_common.o
 .text.soc_set_sys_if_rsrc_power_mode
                0x000000001ffe5048       0x8c build_mx8qx_b0/soc/common/soc_common.o
 .text.soc_trans_m4_sleep_mode
                0x000000001ffe50d4       0x80 build_mx8qx_b0/soc/common/soc_common.o
 .text.soc_set_cpu_resume
                0x000000001ffe5154       0x40 build_mx8qx_b0/soc/common/soc_common.o
                0x000000001ffe5154                soc_set_cpu_resume
 .text.soc_set_m4_resume
                0x000000001ffe5194       0x18 build_mx8qx_b0/soc/common/soc_common.o
                0x000000001ffe5194                soc_set_m4_resume
 .text.soc_set_cluster_power_mode
                0x000000001ffe51ac       0x10 build_mx8qx_b0/soc/common/soc_common.o
                0x000000001ffe51ac                soc_set_cluster_power_mode
 .text.soc_set_cpu_power_mode
                0x000000001ffe51bc       0x20 build_mx8qx_b0/soc/common/soc_common.o
                0x000000001ffe51bc                soc_set_cpu_power_mode
 .text.soc_set_m4_sleep_mode
                0x000000001ffe51dc       0x18 build_mx8qx_b0/soc/common/soc_common.o
                0x000000001ffe51dc                soc_set_m4_sleep_mode
 .text.soc_wake_lsio_mu
                0x000000001ffe51f4       0x2c build_mx8qx_b0/soc/common/soc_common.o
                0x000000001ffe51f4                soc_wake_lsio_mu
 .text.soc_wake_m4_mu
                0x000000001ffe5220       0x18 build_mx8qx_b0/soc/common/soc_common.o
                0x000000001ffe5220                soc_wake_m4_mu
 .text.soc_wake_sys_if_interconnect
                0x000000001ffe5238       0x30 build_mx8qx_b0/soc/common/soc_common.o
                0x000000001ffe5238                soc_wake_sys_if_interconnect
 .text.soc_get_hmp_sys_power_mode
                0x000000001ffe5268       0x34 build_mx8qx_b0/soc/common/soc_common.o
                0x000000001ffe5268                soc_get_hmp_sys_power_mode
 .text.soc_reset_reason
                0x000000001ffe529c       0x5c build_mx8qx_b0/soc/common/soc_common.o
                0x000000001ffe529c                soc_reset_reason
 .text.temp_sensor_tick
                0x000000001ffe52f8       0x70 build_mx8qx_b0/soc/common/soc_common.o
                0x000000001ffe52f8                temp_sensor_tick
 .text.soc_ddr_config_retention
                0x000000001ffe5368        0xc build_mx8qx_b0/soc/common/soc_common.o
                0x000000001ffe5368                soc_ddr_config_retention
 .text.soc_ddr_enter_retention
                0x000000001ffe5374       0x60 build_mx8qx_b0/soc/common/soc_common.o
                0x000000001ffe5374                soc_ddr_enter_retention
 .text.soc_ddr_exit_retention
                0x000000001ffe53d4       0x50 build_mx8qx_b0/soc/common/soc_common.o
                0x000000001ffe53d4                soc_ddr_exit_retention
 .text.soc_set_sys_if_power_mode
                0x000000001ffe5424       0xb0 build_mx8qx_b0/soc/common/soc_common.o
 .text.soc_trans_sys_if_hpm
                0x000000001ffe54d4       0x58 build_mx8qx_b0/soc/common/soc_common.o
                0x000000001ffe54d4                soc_trans_sys_if_hpm
 .text.soc_trans_sys_if_lpm
                0x000000001ffe552c       0x58 build_mx8qx_b0/soc/common/soc_common.o
                0x000000001ffe552c                soc_trans_sys_if_lpm
 .text.soc_trans_m4_power_mode
                0x000000001ffe5584       0x64 build_mx8qx_b0/soc/common/soc_common.o
                0x000000001ffe5584                soc_trans_m4_power_mode
 .text.soc_wake_m4
                0x000000001ffe55e8       0x28 build_mx8qx_b0/soc/common/soc_common.o
                0x000000001ffe55e8                soc_wake_m4
 .text.soc_sync_sys_if_pm
                0x000000001ffe5610       0x54 build_mx8qx_b0/soc/common/soc_common.o
                0x000000001ffe5610                soc_sync_sys_if_pm
 .text.soc_req_sys_if_power_mode
                0x000000001ffe5664       0x30 build_mx8qx_b0/soc/common/soc_common.o
                0x000000001ffe5664                soc_req_sys_if_power_mode
 .text.soc_trans_cpu_power_mode
                0x000000001ffe5694      0x198 build_mx8qx_b0/soc/common/soc_common.o
                0x000000001ffe5694                soc_trans_cpu_power_mode
 .text.soc_wake_cpu
                0x000000001ffe582c       0x38 build_mx8qx_b0/soc/common/soc_common.o
                0x000000001ffe582c                soc_wake_cpu
 .text.soc_prewake_cpu
                0x000000001ffe5864       0x64 build_mx8qx_b0/soc/common/soc_common.o
                0x000000001ffe5864                soc_prewake_cpu
 .text.soc_rompatch_checksum
                0x000000001ffe58c8       0x48 build_mx8qx_b0/soc/common/soc_common.o
                0x000000001ffe58c8                soc_rompatch_checksum
 .text.dpll_populate_tbl
                0x000000001ffe5910      0x140 build_mx8qx_b0/soc/common/soc_common.o
                0x000000001ffe5910                dpll_populate_tbl
 .text.ANA_Temp2Val
                0x000000001ffe5a50       0x50 build_mx8qx_b0/drivers/analog/fsl_analog.o
                0x000000001ffe5a50                ANA_Temp2Val
 .text.ANA_Val2Temp
                0x000000001ffe5aa0       0x3a build_mx8qx_b0/drivers/analog/fsl_analog.o
                0x000000001ffe5aa0                ANA_Val2Temp
 *fill*         0x000000001ffe5ada        0x2 
 .text.ANA_XtalOsc24Init
                0x000000001ffe5adc       0x14 build_mx8qx_b0/drivers/analog/fsl_analog.o
                0x000000001ffe5adc                ANA_XtalOsc24Init
 .text.ANA_DiffClkRootInit
                0x000000001ffe5af0       0x14 build_mx8qx_b0/drivers/analog/fsl_analog.o
                0x000000001ffe5af0                ANA_DiffClkRootInit
 .text.ANA_DiffClkRptrInit
                0x000000001ffe5b04       0x20 build_mx8qx_b0/drivers/analog/fsl_analog.o
                0x000000001ffe5b04                ANA_DiffClkRptrInit
 .text.ANA_DiffClkTermInit
                0x000000001ffe5b24       0x1c build_mx8qx_b0/drivers/analog/fsl_analog.o
                0x000000001ffe5b24                ANA_DiffClkTermInit
 .text.ANA_XtalOsc24Setup
                0x000000001ffe5b40       0x78 build_mx8qx_b0/drivers/analog/fsl_analog.o
                0x000000001ffe5b40                ANA_XtalOsc24Setup
 .text.ANA_DiffClkRootSetup
                0x000000001ffe5bb8       0xa4 build_mx8qx_b0/drivers/analog/fsl_analog.o
                0x000000001ffe5bb8                ANA_DiffClkRootSetup
 .text.ANA_DiffClkRptrSetup
                0x000000001ffe5c5c       0x78 build_mx8qx_b0/drivers/analog/fsl_analog.o
                0x000000001ffe5c5c                ANA_DiffClkRptrSetup
 .text.ANA_DiffClkTermSetup
                0x000000001ffe5cd4       0x54 build_mx8qx_b0/drivers/analog/fsl_analog.o
                0x000000001ffe5cd4                ANA_DiffClkTermSetup
 .text.RefgenSetup
                0x000000001ffe5d28       0x3c build_mx8qx_b0/drivers/analog/fsl_analog_refgen.o
                0x000000001ffe5d28                RefgenSetup
 .text.RefgenEnabled
                0x000000001ffe5d64       0x1a build_mx8qx_b0/drivers/analog/fsl_analog_refgen.o
                0x000000001ffe5d64                RefgenEnabled
 .text.RefgenTrimmed
                0x000000001ffe5d7e       0x1e build_mx8qx_b0/drivers/analog/fsl_analog_refgen.o
                0x000000001ffe5d7e                RefgenTrimmed
 .text.RefgenSetEn
                0x000000001ffe5d9c       0x10 build_mx8qx_b0/drivers/analog/fsl_analog_refgen.o
                0x000000001ffe5d9c                RefgenSetEn
 .text.BandgapSetEn
                0x000000001ffe5dac       0x42 build_mx8qx_b0/drivers/analog/fsl_analog_refgen.o
                0x000000001ffe5dac                BandgapSetEn
 .text.BandgapSetTrim
                0x000000001ffe5dee       0x3a build_mx8qx_b0/drivers/analog/fsl_analog_refgen.o
                0x000000001ffe5dee                BandgapSetTrim
 .text.BandgapSelfBiasOff
                0x000000001ffe5e28        0x8 build_mx8qx_b0/drivers/analog/fsl_analog_refgen.o
                0x000000001ffe5e28                BandgapSelfBiasOff
 .text.CSR_SetCSR
                0x000000001ffe5e30       0x1e build_mx8qx_b0/drivers/csr/fsl_csr.o
                0x000000001ffe5e30                CSR_SetCSR
 .text.CSR_SetCSR2
                0x000000001ffe5e4e       0x1e build_mx8qx_b0/drivers/csr/fsl_csr.o
                0x000000001ffe5e4e                CSR_SetCSR2
 .text.CSR_SetCSR3
                0x000000001ffe5e6c       0x1e build_mx8qx_b0/drivers/csr/fsl_csr.o
                0x000000001ffe5e6c                CSR_SetCSR3
 .text.CSR_GetCSR
                0x000000001ffe5e8a       0x10 build_mx8qx_b0/drivers/csr/fsl_csr.o
                0x000000001ffe5e8a                CSR_GetCSR
 .text.CSR_GetCSR2
                0x000000001ffe5e9a       0x10 build_mx8qx_b0/drivers/csr/fsl_csr.o
                0x000000001ffe5e9a                CSR_GetCSR2
 .text.CSR_GetCSR3
                0x000000001ffe5eaa       0x10 build_mx8qx_b0/drivers/csr/fsl_csr.o
                0x000000001ffe5eaa                CSR_GetCSR3
 .text.DSC_Init
                0x000000001ffe5eba        0x2 build_mx8qx_b0/drivers/dsc/fsl_dsc.o
                0x000000001ffe5eba                DSC_Init
 .text.DSC_PllEnable
                0x000000001ffe5ebc        0x4 build_mx8qx_b0/drivers/dsc/fsl_dsc.o
                0x000000001ffe5ebc                DSC_PllEnable
 .text.DSC_PllDisable
                0x000000001ffe5ec0        0x4 build_mx8qx_b0/drivers/dsc/fsl_dsc.o
                0x000000001ffe5ec0                DSC_PllDisable
 .text.DSC_PllSetRate
                0x000000001ffe5ec4       0x10 build_mx8qx_b0/drivers/dsc/fsl_dsc.o
                0x000000001ffe5ec4                DSC_PllSetRate
 .text.DSC_PllGetRate
                0x000000001ffe5ed4        0x4 build_mx8qx_b0/drivers/dsc/fsl_dsc.o
                0x000000001ffe5ed4                DSC_PllGetRate
 .text.DSC_ClkGetRateDiv
                0x000000001ffe5ed8       0x6a build_mx8qx_b0/drivers/dsc/fsl_dsc.o
                0x000000001ffe5ed8                DSC_ClkGetRateDiv
 *fill*         0x000000001ffe5f42        0x2 
 .text.DSC_ClkSetRate
                0x000000001ffe5f44       0xd4 build_mx8qx_b0/drivers/dsc/fsl_dsc.o
                0x000000001ffe5f44                DSC_ClkSetRate
 .text.DSC_MSliceGetDiv
                0x000000001ffe6018       0x2c build_mx8qx_b0/drivers/dsc/fsl_dsc.o
                0x000000001ffe6018                DSC_MSliceGetDiv
 .text.DSC_MSliceSetDiv
                0x000000001ffe6044       0x3e build_mx8qx_b0/drivers/dsc/fsl_dsc.o
                0x000000001ffe6044                DSC_MSliceSetDiv
 .text.DSC_ClkGetParent
                0x000000001ffe6082       0x3c build_mx8qx_b0/drivers/dsc/fsl_dsc.o
                0x000000001ffe6082                DSC_ClkGetParent
 .text.DSC_ClkSetParent
                0x000000001ffe60be       0x4a build_mx8qx_b0/drivers/dsc/fsl_dsc.o
                0x000000001ffe60be                DSC_ClkSetParent
 .text.DSC_SliceReset
                0x000000001ffe6108       0xa2 build_mx8qx_b0/drivers/dsc/fsl_dsc.o
                0x000000001ffe6108                DSC_SliceReset
 *fill*         0x000000001ffe61aa        0x2 
 .text.DSC_Reset
                0x000000001ffe61ac      0x100 build_mx8qx_b0/drivers/dsc/fsl_dsc.o
                0x000000001ffe61ac                DSC_Reset
 .text.DSC_PdEnabled
                0x000000001ffe62ac       0x28 build_mx8qx_b0/drivers/dsc/fsl_dsc.o
                0x000000001ffe62ac                DSC_PdEnabled
 .text.DSC_PdEnable
                0x000000001ffe62d4       0xee build_mx8qx_b0/drivers/dsc/fsl_dsc.o
                0x000000001ffe62d4                DSC_PdEnable
 *fill*         0x000000001ffe63c2        0x2 
 .text.DSC_PdDisable
                0x000000001ffe63c4      0x100 build_mx8qx_b0/drivers/dsc/fsl_dsc.o
                0x000000001ffe63c4                DSC_PdDisable
 .text.DSC_IsolationDisable
                0x000000001ffe64c4       0x38 build_mx8qx_b0/drivers/dsc/fsl_dsc.o
                0x000000001ffe64c4                DSC_IsolationDisable
 .text.DSC_SetReset
                0x000000001ffe64fc       0x10 build_mx8qx_b0/drivers/dsc/fsl_dsc.o
                0x000000001ffe64fc                DSC_SetReset
 .text.DSC_GetReset
                0x000000001ffe650c        0xa build_mx8qx_b0/drivers/dsc/fsl_dsc.o
                0x000000001ffe650c                DSC_GetReset
 .text.DSC_SetGPRControl
                0x000000001ffe6516       0x1c build_mx8qx_b0/drivers/dsc/fsl_dsc.o
                0x000000001ffe6516                DSC_SetGPRControl
 .text.DSC_SetClockMode
                0x000000001ffe6532       0xa4 build_mx8qx_b0/drivers/dsc/fsl_dsc.o
                0x000000001ffe6532                DSC_SetClockMode
 .text.DSC_GetGPRControl
                0x000000001ffe65d6        0xe build_mx8qx_b0/drivers/dsc/fsl_dsc.o
                0x000000001ffe65d6                DSC_GetGPRControl
 .text.DSC_GetGPRStatus
                0x000000001ffe65e4        0xe build_mx8qx_b0/drivers/dsc/fsl_dsc.o
                0x000000001ffe65e4                DSC_GetGPRStatus
 .text.DSC_WaitGPRStatus
                0x000000001ffe65f2       0x16 build_mx8qx_b0/drivers/dsc/fsl_dsc.o
                0x000000001ffe65f2                DSC_WaitGPRStatus
 .text.DSC_EnableIrq
                0x000000001ffe6608       0x28 build_mx8qx_b0/drivers/dsc/fsl_dsc.o
                0x000000001ffe6608                DSC_EnableIrq
 .text.DSC_GetIrqPending
                0x000000001ffe6630       0x1c build_mx8qx_b0/drivers/dsc/fsl_dsc.o
                0x000000001ffe6630                DSC_GetIrqPending
 .text.DSC_GetIrqStatus
                0x000000001ffe664c       0x1c build_mx8qx_b0/drivers/dsc/fsl_dsc.o
                0x000000001ffe664c                DSC_GetIrqStatus
 .text.DSC_FuncClkToggle
                0x000000001ffe6668       0x42 build_mx8qx_b0/drivers/dsc/fsl_dsc.o
                0x000000001ffe6668                DSC_FuncClkToggle
 .text.DSC_Dump
                0x000000001ffe66aa        0x2 build_mx8qx_b0/drivers/dsc/fsl_dsc.o
                0x000000001ffe66aa                DSC_Dump
 .text.calc_best_pll_rate
                0x000000001ffe66ac       0xbc build_mx8qx_b0/drivers/dsc/fsl_dsc_ai.o
 .text.DSC_EnableAnamixAI
                0x000000001ffe6768       0x18 build_mx8qx_b0/drivers/dsc/fsl_dsc_ai.o
                0x000000001ffe6768                DSC_EnableAnamixAI
 .text.DSC_DisableAnamixAI
                0x000000001ffe6780       0x1c build_mx8qx_b0/drivers/dsc/fsl_dsc_ai.o
                0x000000001ffe6780                DSC_DisableAnamixAI
 .text.DSC_EnablePhymixAI
                0x000000001ffe679c       0x1a build_mx8qx_b0/drivers/dsc/fsl_dsc_ai.o
                0x000000001ffe679c                DSC_EnablePhymixAI
 .text.DSC_AIRegisterWrite
                0x000000001ffe67b6       0x3c build_mx8qx_b0/drivers/dsc/fsl_dsc_ai.o
                0x000000001ffe67b6                DSC_AIRegisterWrite
 .text.DSC_AIRegisterRead
                0x000000001ffe67f2       0x52 build_mx8qx_b0/drivers/dsc/fsl_dsc_ai.o
                0x000000001ffe67f2                DSC_AIRegisterRead
 .text.DSC_AIPllEnable
                0x000000001ffe6844      0x2f8 build_mx8qx_b0/drivers/dsc/fsl_dsc_ai.o
                0x000000001ffe6844                DSC_AIPllEnable
 .text.DSC_AIPllDisable
                0x000000001ffe6b3c       0xbe build_mx8qx_b0/drivers/dsc/fsl_dsc_ai.o
                0x000000001ffe6b3c                DSC_AIPllDisable
 *fill*         0x000000001ffe6bfa        0x6 
 .text.DSC_AIPllSetRate
                0x000000001ffe6c00      0x3d0 build_mx8qx_b0/drivers/dsc/fsl_dsc_ai.o
                0x000000001ffe6c00                DSC_AIPllSetRate
 .text.DSC_AIPllGetRate
                0x000000001ffe6fd0       0xe4 build_mx8qx_b0/drivers/dsc/fsl_dsc_ai.o
                0x000000001ffe6fd0                DSC_AIPllGetRate
 .text.DSC_CalcBestPllFreqParent
                0x000000001ffe70b4       0x64 build_mx8qx_b0/drivers/dsc/fsl_dsc_ai.o
                0x000000001ffe70b4                DSC_CalcBestPllFreqParent
 .text.DSC_AIPowerTemp
                0x000000001ffe7118       0xd4 build_mx8qx_b0/drivers/dsc/fsl_dsc_ai.o
                0x000000001ffe7118                DSC_AIPowerTemp
 .text.DSC_AITriggerTemp
                0x000000001ffe71ec       0x36 build_mx8qx_b0/drivers/dsc/fsl_dsc_ai.o
                0x000000001ffe71ec                DSC_AITriggerTemp
 .text.DSC_AISetTemp
                0x000000001ffe7222      0x118 build_mx8qx_b0/drivers/dsc/fsl_dsc_ai.o
                0x000000001ffe7222                DSC_AISetTemp
 .text.DSC_AIGetTemp
                0x000000001ffe733a       0x56 build_mx8qx_b0/drivers/dsc/fsl_dsc_ai.o
                0x000000001ffe733a                DSC_AIGetTemp
 .text.DSC_AIClearTemp
                0x000000001ffe7390       0x94 build_mx8qx_b0/drivers/dsc/fsl_dsc_ai.o
                0x000000001ffe7390                DSC_AIClearTemp
 .text.PAD_ExtractMux
                0x000000001ffe7424        0x6 build_mx8qx_b0/drivers/pad/fsl_pad.o
                0x000000001ffe7424                PAD_ExtractMux
 .text.PAD_Set  0x000000001ffe742a        0xc build_mx8qx_b0/drivers/pad/fsl_pad.o
                0x000000001ffe742a                PAD_Set
 .text.PAD_Get  0x000000001ffe7436        0xe build_mx8qx_b0/drivers/pad/fsl_pad.o
                0x000000001ffe7436                PAD_Get
 .text.PAD_SetMux
                0x000000001ffe7444       0x1e build_mx8qx_b0/drivers/pad/fsl_pad.o
                0x000000001ffe7444                PAD_SetMux
 .text.PAD_GetMux
                0x000000001ffe7462       0x20 build_mx8qx_b0/drivers/pad/fsl_pad.o
                0x000000001ffe7462                PAD_GetMux
 .text.PAD_SetGP
                0x000000001ffe7482       0x14 build_mx8qx_b0/drivers/pad/fsl_pad.o
                0x000000001ffe7482                PAD_SetGP
 .text.PAD_GetGP
                0x000000001ffe7496       0x12 build_mx8qx_b0/drivers/pad/fsl_pad.o
                0x000000001ffe7496                PAD_GetGP
 .text.PAD_SetGP28Fdsoi
                0x000000001ffe74a8       0x1a build_mx8qx_b0/drivers/pad/fsl_pad.o
                0x000000001ffe74a8                PAD_SetGP28Fdsoi
 .text.PAD_GetGP28Fdsoi
                0x000000001ffe74c2       0x1a build_mx8qx_b0/drivers/pad/fsl_pad.o
                0x000000001ffe74c2                PAD_GetGP28Fdsoi
 .text.PAD_SetGP28FdsoiHsic
                0x000000001ffe74dc       0x30 build_mx8qx_b0/drivers/pad/fsl_pad.o
                0x000000001ffe74dc                PAD_SetGP28FdsoiHsic
 .text.PAD_GetGP28FdsoiHsic
                0x000000001ffe750c       0x32 build_mx8qx_b0/drivers/pad/fsl_pad.o
                0x000000001ffe750c                PAD_GetGP28FdsoiHsic
 .text.PAD_SetGP28FdsoiComp
                0x000000001ffe753e       0x42 build_mx8qx_b0/drivers/pad/fsl_pad.o
                0x000000001ffe753e                PAD_SetGP28FdsoiComp
 .text.PAD_GetGP28FdsoiComp
                0x000000001ffe7580       0x50 build_mx8qx_b0/drivers/pad/fsl_pad.o
                0x000000001ffe7580                PAD_GetGP28FdsoiComp
 .text.PAD_SetWakeup
                0x000000001ffe75d0       0x14 build_mx8qx_b0/drivers/pad/fsl_pad.o
                0x000000001ffe75d0                PAD_SetWakeup
 .text.PAD_GetWakeup
                0x000000001ffe75e4       0x12 build_mx8qx_b0/drivers/pad/fsl_pad.o
                0x000000001ffe75e4                PAD_GetWakeup
 *fill*         0x000000001ffe75f6        0x2 
 .text.PAD_SetAll
                0x000000001ffe75f8       0x30 build_mx8qx_b0/drivers/pad/fsl_pad.o
                0x000000001ffe75f8                PAD_SetAll
 .text.PAD_GetAll
                0x000000001ffe7628       0x30 build_mx8qx_b0/drivers/pad/fsl_pad.o
                0x000000001ffe7628                PAD_GetAll
 .text.SYSCTR_Init
                0x000000001ffe7658       0x1c build_mx8qx_b0/drivers/sysctr/fsl_sysctr.o
                0x000000001ffe7658                SYSCTR_Init
 .text.SYSCTR_GetCounter64
                0x000000001ffe7674       0x1c build_mx8qx_b0/drivers/sysctr/fsl_sysctr.o
                0x000000001ffe7674                SYSCTR_GetCounter64
 .text.SYSCTR_GetCounter32
                0x000000001ffe7690        0x8 build_mx8qx_b0/drivers/sysctr/fsl_sysctr.o
                0x000000001ffe7690                SYSCTR_GetCounter32
 .text.SYSCTR_GetUsec64
                0x000000001ffe7698       0x10 build_mx8qx_b0/drivers/sysctr/fsl_sysctr.o
                0x000000001ffe7698                SYSCTR_GetUsec64
 .text.SYSCTR_FreqMode
                0x000000001ffe76a8       0x2c build_mx8qx_b0/drivers/sysctr/fsl_sysctr.o
                0x000000001ffe76a8                SYSCTR_FreqMode
 .text.SYSCTR_WakeEnable
                0x000000001ffe76d4       0x24 build_mx8qx_b0/drivers/sysctr/fsl_sysctr.o
                0x000000001ffe76d4                SYSCTR_WakeEnable
 .text.SYSCTR_Compare1Enable
                0x000000001ffe76f8       0x10 build_mx8qx_b0/drivers/sysctr/fsl_sysctr.o
                0x000000001ffe76f8                SYSCTR_Compare1Enable
 .text.SYSCTR_Compare1Disable
                0x000000001ffe7708        0xc build_mx8qx_b0/drivers/sysctr/fsl_sysctr.o
                0x000000001ffe7708                SYSCTR_Compare1Disable
 .text.SYSCTR_CMP0_IRQHandler
                0x000000001ffe7714        0xc build_mx8qx_b0/drivers/sysctr/fsl_sysctr.o
                0x000000001ffe7714                SYSCTR_CMP0_IRQHandler
 .text.XRDC_Init
                0x000000001ffe7720        0x2 build_mx8qx_b0/drivers/xrdc2/fsl_xrdc2.o
                0x000000001ffe7720                XRDC_Init
 .text.XRDC_Config
                0x000000001ffe7722       0x32 build_mx8qx_b0/drivers/xrdc2/fsl_xrdc2.o
                0x000000001ffe7722                XRDC_Config
 .text.XRDC_GetMsc
                0x000000001ffe7754       0x90 build_mx8qx_b0/drivers/xrdc2/fsl_xrdc2.o
                0x000000001ffe7754                XRDC_GetMsc
 .text.XRDC_SetMsc
                0x000000001ffe77e4       0xd0 build_mx8qx_b0/drivers/xrdc2/fsl_xrdc2.o
                0x000000001ffe77e4                XRDC_SetMsc
 .text.XRDC_SetMultiMsc
                0x000000001ffe78b4       0x32 build_mx8qx_b0/drivers/xrdc2/fsl_xrdc2.o
                0x000000001ffe78b4                XRDC_SetMultiMsc
 .text.XRDC_GetMda
                0x000000001ffe78e6       0xba build_mx8qx_b0/drivers/xrdc2/fsl_xrdc2.o
                0x000000001ffe78e6                XRDC_GetMda
 .text.XRDC_SetMda
                0x000000001ffe79a0       0xb2 build_mx8qx_b0/drivers/xrdc2/fsl_xrdc2.o
                0x000000001ffe79a0                XRDC_SetMda
 .text.XRDC_GetMrc
                0x000000001ffe7a52      0x1a2 build_mx8qx_b0/drivers/xrdc2/fsl_xrdc2.o
                0x000000001ffe7a52                XRDC_GetMrc
 .text.XRDC_SetMrc
                0x000000001ffe7bf4      0x222 build_mx8qx_b0/drivers/xrdc2/fsl_xrdc2.o
                0x000000001ffe7bf4                XRDC_SetMrc
 .text.XRDC_InvalidateMrc
                0x000000001ffe7e16       0xfa build_mx8qx_b0/drivers/xrdc2/fsl_xrdc2.o
                0x000000001ffe7e16                XRDC_InvalidateMrc
 .text.XRDC_FindMrc
                0x000000001ffe7f10       0x94 build_mx8qx_b0/drivers/xrdc2/fsl_xrdc2.o
                0x000000001ffe7f10                XRDC_FindMrc
 .text.XRDC_UnusedMrc
                0x000000001ffe7fa4       0x62 build_mx8qx_b0/drivers/xrdc2/fsl_xrdc2.o
                0x000000001ffe7fa4                XRDC_UnusedMrc
 *fill*         0x000000001ffe8006        0x2 
 .text.XRDC_PacCheck
                0x000000001ffe8008       0x34 build_mx8qx_b0/drivers/xrdc2/fsl_xrdc2.o
                0x000000001ffe8008                XRDC_PacCheck
 .text.check_pac_slot
                0x000000001ffe803c       0x9c build_mx8qx_b0/drivers/xrdc2/fsl_xrdc2.o
                0x000000001ffe803c                check_pac_slot
 .text.XRDC_GetPdac
                0x000000001ffe80d8       0xa2 build_mx8qx_b0/drivers/xrdc2/fsl_xrdc2.o
                0x000000001ffe80d8                XRDC_GetPdac
 .text.XRDC_SetPdac
                0x000000001ffe817a       0xf2 build_mx8qx_b0/drivers/xrdc2/fsl_xrdc2.o
                0x000000001ffe817a                XRDC_SetPdac
 .text.XRDC_SetMultiPdac
                0x000000001ffe826c       0x32 build_mx8qx_b0/drivers/xrdc2/fsl_xrdc2.o
                0x000000001ffe826c                XRDC_SetMultiPdac
 *fill*         0x000000001ffe829e        0x2 
 .text.MTR_repair_mem
                0x000000001ffe82a0       0x28 build_mx8qx_b0/drivers/mtr/fsl_mtr.o
                0x000000001ffe82a0                MTR_repair_mem
 .text.mu_rx    0x000000001ffe82c8       0x60 build_mx8qx_b0/drivers/seco/v2/fsl_seco.o
 .text.seco_err_xlate
                0x000000001ffe8328       0xd0 build_mx8qx_b0/drivers/seco/v2/fsl_seco.o
 .text.seco_call.constprop.3
                0x000000001ffe83f8      0x120 build_mx8qx_b0/drivers/seco/v2/fsl_seco.o
 .text.SECO_Get_Lifecycle
                0x000000001ffe8518       0x10 build_mx8qx_b0/drivers/seco/v2/fsl_seco.o
                0x000000001ffe8518                SECO_Get_Lifecycle
 .text.SECO_Power
                0x000000001ffe8528       0x34 build_mx8qx_b0/drivers/seco/v2/fsl_seco.o
                0x000000001ffe8528                SECO_Power
 .text.SECO_Image_Load
                0x000000001ffe855c        0x4 build_mx8qx_b0/drivers/seco/v2/fsl_seco.o
                0x000000001ffe855c                SECO_Image_Load
 .text.SECO_Authenticate
                0x000000001ffe8560       0x98 build_mx8qx_b0/drivers/seco/v2/fsl_seco.o
                0x000000001ffe8560                SECO_Authenticate
 .text.SECO_ClearCache
                0x000000001ffe85f8       0x24 build_mx8qx_b0/drivers/seco/v2/fsl_seco.o
                0x000000001ffe85f8                SECO_ClearCache
 .text.SECO_CAAM_Config
                0x000000001ffe861c      0x108 build_mx8qx_b0/drivers/seco/v2/fsl_seco.o
                0x000000001ffe861c                SECO_CAAM_Config
 .text.SECO_CAAM_PowerDown
                0x000000001ffe8724        0x4 build_mx8qx_b0/drivers/seco/v2/fsl_seco.o
                0x000000001ffe8724                SECO_CAAM_PowerDown
 .text.SECO_EnterLPM
                0x000000001ffe8728       0x20 build_mx8qx_b0/drivers/seco/v2/fsl_seco.o
                0x000000001ffe8728                SECO_EnterLPM
 .text.SECO_ExitLPM
                0x000000001ffe8748       0x1c build_mx8qx_b0/drivers/seco/v2/fsl_seco.o
                0x000000001ffe8748                SECO_ExitLPM
 .text.SECO_WriteSNVS
                0x000000001ffe8764       0x24 build_mx8qx_b0/drivers/seco/v2/fsl_seco.o
                0x000000001ffe8764                SECO_WriteSNVS
 .text.SECO_ReadSNVS
                0x000000001ffe8788       0x24 build_mx8qx_b0/drivers/seco/v2/fsl_seco.o
                0x000000001ffe8788                SECO_ReadSNVS
 .text.SECO_WriteFuse
                0x000000001ffe87ac       0x20 build_mx8qx_b0/drivers/seco/v2/fsl_seco.o
                0x000000001ffe87ac                SECO_WriteFuse
 .text.SECO_SecureWriteFuse
                0x000000001ffe87cc       0x20 build_mx8qx_b0/drivers/seco/v2/fsl_seco.o
                0x000000001ffe87cc                SECO_SecureWriteFuse
 .text.SECO_EnableDebug
                0x000000001ffe87ec       0x20 build_mx8qx_b0/drivers/seco/v2/fsl_seco.o
                0x000000001ffe87ec                SECO_EnableDebug
 .text.SECO_ForwardLifecycle
                0x000000001ffe880c       0x20 build_mx8qx_b0/drivers/seco/v2/fsl_seco.o
                0x000000001ffe880c                SECO_ForwardLifecycle
 .text.SECO_ReturnLifecycle
                0x000000001ffe882c       0x20 build_mx8qx_b0/drivers/seco/v2/fsl_seco.o
                0x000000001ffe882c                SECO_ReturnLifecycle
 .text.SECO_KickWdog
                0x000000001ffe884c       0x1c build_mx8qx_b0/drivers/seco/v2/fsl_seco.o
                0x000000001ffe884c                SECO_KickWdog
 .text.SECO_Version
                0x000000001ffe8868       0x54 build_mx8qx_b0/drivers/seco/v2/fsl_seco.o
                0x000000001ffe8868                SECO_Version
 .text.SECO_AttachDebug
                0x000000001ffe88bc       0x1c build_mx8qx_b0/drivers/seco/v2/fsl_seco.o
                0x000000001ffe88bc                SECO_AttachDebug
 .text.SECO_ChipInfo
                0x000000001ffe88d8       0x34 build_mx8qx_b0/drivers/seco/v2/fsl_seco.o
                0x000000001ffe88d8                SECO_ChipInfo
 .text.SECO_DumpEvents
                0x000000001ffe890c       0x58 build_mx8qx_b0/drivers/seco/v2/fsl_seco.o
                0x000000001ffe890c                SECO_DumpEvents
 .text.SECO_ErrNumber
                0x000000001ffe8964        0xc build_mx8qx_b0/drivers/seco/v2/fsl_seco.o
                0x000000001ffe8964                SECO_ErrNumber
 .text.SECO_StartRNG
                0x000000001ffe8970       0x24 build_mx8qx_b0/drivers/seco/v2/fsl_seco.o
                0x000000001ffe8970                SECO_StartRNG
 .text.SECO_Init
                0x000000001ffe8994       0xa0 build_mx8qx_b0/drivers/seco/v2/fsl_seco.o
                0x000000001ffe8994                SECO_Init
 .text.SECO_AttestMode
                0x000000001ffe8a34       0x20 build_mx8qx_b0/drivers/seco/v2/fsl_seco.o
                0x000000001ffe8a34                SECO_AttestMode
 .text.SECO_Attest
                0x000000001ffe8a54       0x20 build_mx8qx_b0/drivers/seco/v2/fsl_seco.o
                0x000000001ffe8a54                SECO_Attest
 .text.SECO_GetAttestPublicKey
                0x000000001ffe8a74       0x24 build_mx8qx_b0/drivers/seco/v2/fsl_seco.o
                0x000000001ffe8a74                SECO_GetAttestPublicKey
 .text.SECO_GetAttestSign
                0x000000001ffe8a98       0x24 build_mx8qx_b0/drivers/seco/v2/fsl_seco.o
                0x000000001ffe8a98                SECO_GetAttestSign
 .text.SECO_AttestVerify
                0x000000001ffe8abc       0x20 build_mx8qx_b0/drivers/seco/v2/fsl_seco.o
                0x000000001ffe8abc                SECO_AttestVerify
 .text.SECO_Commit
                0x000000001ffe8adc       0x28 build_mx8qx_b0/drivers/seco/v2/fsl_seco.o
                0x000000001ffe8adc                SECO_Commit
 .text.LPI2C_GetCyclesForWidth
                0x000000001ffe8b04       0x40 build_mx8qx_b0/drivers/lpi2c/fsl_lpi2c.o
 .text.CLOCK_EnableClock
                0x000000001ffe8b44       0x1c build_mx8qx_b0/drivers/lpi2c/fsl_lpi2c.o
 .text.LPI2C_GetInstance
                0x000000001ffe8b60       0x34 build_mx8qx_b0/drivers/lpi2c/fsl_lpi2c.o
                0x000000001ffe8b60                LPI2C_GetInstance
 .text.LPI2C_MasterCheckAndClearError
                0x000000001ffe8b94       0x5c build_mx8qx_b0/drivers/lpi2c/fsl_lpi2c.o
                0x000000001ffe8b94                LPI2C_MasterCheckAndClearError
 .text.LPI2C_MasterWaitForTxReady
                0x000000001ffe8bf0       0x18 build_mx8qx_b0/drivers/lpi2c/fsl_lpi2c.o
 .text.LPI2C_CheckForBusyBus
                0x000000001ffe8c08       0x14 build_mx8qx_b0/drivers/lpi2c/fsl_lpi2c.o
                0x000000001ffe8c08                LPI2C_CheckForBusyBus
 .text.LPI2C_MasterGetDefaultConfig
                0x000000001ffe8c1c       0x28 build_mx8qx_b0/drivers/lpi2c/fsl_lpi2c.o
                0x000000001ffe8c1c                LPI2C_MasterGetDefaultConfig
 .text.LPI2C_MasterSetBaudRate
                0x000000001ffe8c44       0xe0 build_mx8qx_b0/drivers/lpi2c/fsl_lpi2c.o
                0x000000001ffe8c44                LPI2C_MasterSetBaudRate
 .text.LPI2C_MasterInit
                0x000000001ffe8d24      0x108 build_mx8qx_b0/drivers/lpi2c/fsl_lpi2c.o
                0x000000001ffe8d24                LPI2C_MasterInit
 .text.LPI2C_MasterStart
                0x000000001ffe8e2c       0x30 build_mx8qx_b0/drivers/lpi2c/fsl_lpi2c.o
                0x000000001ffe8e2c                LPI2C_MasterStart
 .text.LPI2C_MasterStop
                0x000000001ffe8e5c       0x2c build_mx8qx_b0/drivers/lpi2c/fsl_lpi2c.o
                0x000000001ffe8e5c                LPI2C_MasterStop
 .text.LPI2C_MasterReceive
                0x000000001ffe8e88       0x58 build_mx8qx_b0/drivers/lpi2c/fsl_lpi2c.o
                0x000000001ffe8e88                LPI2C_MasterReceive
 .text.LPI2C_MasterSend
                0x000000001ffe8ee0       0x40 build_mx8qx_b0/drivers/lpi2c/fsl_lpi2c.o
                0x000000001ffe8ee0                LPI2C_MasterSend
 .text.LPIT_Init
                0x000000001ffe8f20       0x64 build_mx8qx_b0/drivers/lpit/fsl_lpit.o
                0x000000001ffe8f20                LPIT_Init
 .text.LPIT_SetupChannel
                0x000000001ffe8f84       0x58 build_mx8qx_b0/drivers/lpit/fsl_lpit.o
                0x000000001ffe8f84                LPIT_SetupChannel
 .text.LPCG_ClockOn
                0x000000001ffe8fdc       0x18 build_mx8qx_b0/drivers/lpcg/fsl_lpcg.o
                0x000000001ffe8fdc                LPCG_ClockOn
 .text.LPCG_ClockAutoGate
                0x000000001ffe8ff4       0x1c build_mx8qx_b0/drivers/lpcg/fsl_lpcg.o
                0x000000001ffe8ff4                LPCG_ClockAutoGate
 .text.LPCG_AllClockOn
                0x000000001ffe9010       0x16 build_mx8qx_b0/drivers/lpcg/fsl_lpcg.o
                0x000000001ffe9010                LPCG_AllClockOn
 .text.LPCG_AllClockAutoGate
                0x000000001ffe9026        0x8 build_mx8qx_b0/drivers/lpcg/fsl_lpcg.o
                0x000000001ffe9026                LPCG_AllClockAutoGate
 *fill*         0x000000001ffe902e        0x2 
 .text.LPUART_GetInstance
                0x000000001ffe9030       0x34 build_mx8qx_b0/drivers/lpuart/fsl_lpuart.o
                0x000000001ffe9030                LPUART_GetInstance
 .text.LPUART_Init
                0x000000001ffe9064      0x1b0 build_mx8qx_b0/drivers/lpuart/fsl_lpuart.o
                0x000000001ffe9064                LPUART_Init
 .text.LPUART_Deinit
                0x000000001ffe9214       0x34 build_mx8qx_b0/drivers/lpuart/fsl_lpuart.o
                0x000000001ffe9214                LPUART_Deinit
 .text.LPUART_GetDefaultConfig
                0x000000001ffe9248       0x38 build_mx8qx_b0/drivers/lpuart/fsl_lpuart.o
                0x000000001ffe9248                LPUART_GetDefaultConfig
 .text.LPUART_GetStatusFlags
                0x000000001ffe9280       0x10 build_mx8qx_b0/drivers/lpuart/fsl_lpuart.o
                0x000000001ffe9280                LPUART_GetStatusFlags
 .text.LPUART_ClearStatusFlags
                0x000000001ffe9290       0x40 build_mx8qx_b0/drivers/lpuart/fsl_lpuart.o
                0x000000001ffe9290                LPUART_ClearStatusFlags
 .text.LPUART_WriteBlocking
                0x000000001ffe92d0       0x28 build_mx8qx_b0/drivers/lpuart/fsl_lpuart.o
                0x000000001ffe92d0                LPUART_WriteBlocking
 .text.LPUART_ReadBlocking
                0x000000001ffe92f8       0x80 build_mx8qx_b0/drivers/lpuart/fsl_lpuart.o
                0x000000001ffe92f8                LPUART_ReadBlocking
 .text.MU_SendMsg
                0x000000001ffe9378       0x30 build_mx8qx_b0/drivers/mu/fsl_mu.o
                0x000000001ffe9378                MU_SendMsg
 .text.MU_ReceiveMsg
                0x000000001ffe93a8       0x34 build_mx8qx_b0/drivers/mu/fsl_mu.o
                0x000000001ffe93a8                MU_ReceiveMsg
 .text.MU_SetFlags
                0x000000001ffe93dc       0x16 build_mx8qx_b0/drivers/mu/fsl_mu.o
                0x000000001ffe93dc                MU_SetFlags
 .text.MU_TriggerInterrupts
                0x000000001ffe93f2       0x1c build_mx8qx_b0/drivers/mu/fsl_mu.o
                0x000000001ffe93f2                MU_TriggerInterrupts
 .text.otp_check_locked
                0x000000001ffe940e       0x38 build_mx8qx_b0/drivers/otp/fsl_otp.o
 .text.OTP_Init
                0x000000001ffe9446        0x2 build_mx8qx_b0/drivers/otp/fsl_otp.o
                0x000000001ffe9446                OTP_Init
 .text.OTP_Write
                0x000000001ffe9448       0xdc build_mx8qx_b0/drivers/otp/fsl_otp.o
                0x000000001ffe9448                OTP_Write
 .text.OTP_Get_Fuse
                0x000000001ffe9524       0x30 build_mx8qx_b0/drivers/otp/fsl_otp.o
                0x000000001ffe9524                OTP_Get_Fuse
 .text.OTP_Check_Locked
                0x000000001ffe9554       0x2c build_mx8qx_b0/drivers/otp/fsl_otp.o
                0x000000001ffe9554                OTP_Check_Locked
 .text.STC_RIL_SetInterleave
                0x000000001ffe9580        0x8 build_mx8qx_b0/drivers/stc/fsl_stc.o
                0x000000001ffe9580                STC_RIL_SetInterleave
 .text.STC_RCAT_SetCategorization
                0x000000001ffe9588       0x14 build_mx8qx_b0/drivers/stc/fsl_stc.o
                0x000000001ffe9588                STC_RCAT_SetCategorization
 .text.STC_QOS_Panic
                0x000000001ffe959c        0xc build_mx8qx_b0/drivers/stc/fsl_stc.o
                0x000000001ffe959c                STC_QOS_Panic
 .text.SYSTICK_Init
                0x000000001ffe95a8       0x18 build_mx8qx_b0/drivers/systick/fsl_systick.o
                0x000000001ffe95a8                SYSTICK_Init
 .text.SYSTICK_TickDiff32
                0x000000001ffe95c0        0xe build_mx8qx_b0/drivers/systick/fsl_systick.o
                0x000000001ffe95c0                SYSTICK_TickDiff32
 *fill*         0x000000001ffe95ce        0x2 
 .text.SYSTICK_CycleDelay
                0x000000001ffe95d0       0x1c build_mx8qx_b0/drivers/systick/fsl_systick.o
                0x000000001ffe95d0                SYSTICK_CycleDelay
 .text.SYSTICK_TimeDelay
                0x000000001ffe95ec       0x30 build_mx8qx_b0/drivers/systick/fsl_systick.o
                0x000000001ffe95ec                SYSTICK_TimeDelay
 .text.ddrc_mrw.constprop.1
                0x000000001ffe961c       0x60 build_mx8qx_b0/drivers/drc/fsl_drc.o
 .text.ddr_enter_retention
                0x000000001ffe967c      0x7ac build_mx8qx_b0/drivers/drc/fsl_drc.o
                0x000000001ffe967c                ddr_enter_retention
 .text.ddr_exit_retention
                0x000000001ffe9e28      0x914 build_mx8qx_b0/drivers/drc/fsl_drc.o
                0x000000001ffe9e28                ddr_exit_retention
 .text.SNVS_Init
                0x000000001ffea73c       0x38 build_mx8qx_b0/drivers/snvs/v2/fsl_snvs.o
                0x000000001ffea73c                SNVS_Init
 .text.SNVS_PowerOff
                0x000000001ffea774       0x14 build_mx8qx_b0/drivers/snvs/v2/fsl_snvs.o
                0x000000001ffea774                SNVS_PowerOff
 .text.SNVS_GetSecureRtc
                0x000000001ffea788       0x16 build_mx8qx_b0/drivers/snvs/v2/fsl_snvs.o
                0x000000001ffea788                SNVS_GetSecureRtc
 .text.SNVS_SetSecureRtcCalb
                0x000000001ffea79e       0x16 build_mx8qx_b0/drivers/snvs/v2/fsl_snvs.o
                0x000000001ffea79e                SNVS_SetSecureRtcCalb
 .text.SNVS_SetSecureRtcAlarm
                0x000000001ffea7b4       0x16 build_mx8qx_b0/drivers/snvs/v2/fsl_snvs.o
                0x000000001ffea7b4                SNVS_SetSecureRtcAlarm
 .text.SNVS_SetRtc
                0x000000001ffea7ca       0x16 build_mx8qx_b0/drivers/snvs/v2/fsl_snvs.o
                0x000000001ffea7ca                SNVS_SetRtc
 .text.SNVS_GetRtc
                0x000000001ffea7e0       0x16 build_mx8qx_b0/drivers/snvs/v2/fsl_snvs.o
                0x000000001ffea7e0                SNVS_GetRtc
 .text.SNVS_SetRtcCalb
                0x000000001ffea7f6       0x16 build_mx8qx_b0/drivers/snvs/v2/fsl_snvs.o
                0x000000001ffea7f6                SNVS_SetRtcCalb
 .text.SNVS_SetRtcAlarm
                0x000000001ffea80c       0x20 build_mx8qx_b0/drivers/snvs/v2/fsl_snvs.o
                0x000000001ffea80c                SNVS_SetRtcAlarm
 .text.SNVS_ConfigButton
                0x000000001ffea82c       0x30 build_mx8qx_b0/drivers/snvs/v2/fsl_snvs.o
                0x000000001ffea82c                SNVS_ConfigButton
 .text.SNVS_GetButtonStatus
                0x000000001ffea85c       0x1a build_mx8qx_b0/drivers/snvs/v2/fsl_snvs.o
                0x000000001ffea85c                SNVS_GetButtonStatus
 .text.SNVS_ClearButtonIRQ
                0x000000001ffea876       0x14 build_mx8qx_b0/drivers/snvs/v2/fsl_snvs.o
                0x000000001ffea876                SNVS_ClearButtonIRQ
 *fill*         0x000000001ffea88a        0x2 
 .text.SNVS_EnterLPM
                0x000000001ffea88c       0x34 build_mx8qx_b0/drivers/snvs/v2/fsl_snvs.o
                0x000000001ffea88c                SNVS_EnterLPM
 .text.SNVS_ExitLPM
                0x000000001ffea8c0       0x44 build_mx8qx_b0/drivers/snvs/v2/fsl_snvs.o
                0x000000001ffea8c0                SNVS_ExitLPM
 .text.SNVS_GetState
                0x000000001ffea904       0x1e build_mx8qx_b0/drivers/snvs/v2/fsl_snvs.o
                0x000000001ffea904                SNVS_GetState
 *fill*         0x000000001ffea922        0x2 
 .text.SNVS_SecurityViolation_IRQHandler
                0x000000001ffea924       0x14 build_mx8qx_b0/drivers/snvs/v2/fsl_snvs.o
                0x000000001ffea924                SNVS_SecurityViolation_IRQHandler
 .text.SNVS_PowerOff_IRQHandler
                0x000000001ffea938       0x20 build_mx8qx_b0/drivers/snvs/v2/fsl_snvs.o
                0x000000001ffea938                SNVS_PowerOff_IRQHandler
 .text.i2c_write_sub
                0x000000001ffea958       0x40 build_mx8qx_b0/drivers/pmic/fsl_pmic.o
                0x000000001ffea958                i2c_write_sub
 .text.i2c_write
                0x000000001ffea998        0x4 build_mx8qx_b0/drivers/pmic/fsl_pmic.o
                0x000000001ffea998                i2c_write
 .text.i2c_read_sub
                0x000000001ffea99c       0x6c build_mx8qx_b0/drivers/pmic/fsl_pmic.o
                0x000000001ffea99c                i2c_read_sub
 .text.i2c_read
                0x000000001ffeaa08        0x4 build_mx8qx_b0/drivers/pmic/fsl_pmic.o
                0x000000001ffeaa08                i2c_read
 .text.pmic_get_device_id
                0x000000001ffeaa0c       0x94 build_mx8qx_b0/drivers/pmic/fsl_pmic.o
                0x000000001ffeaa0c                pmic_get_device_id
 .text.check_si_rev
                0x000000001ffeaaa0       0x34 build_mx8qx_b0/drivers/pmic/pf8100/fsl_pf8100.o
 .text.pf8100_get_pmic_version
                0x000000001ffeaad4       0x50 build_mx8qx_b0/drivers/pmic/pf8100/fsl_pf8100.o
                0x000000001ffeaad4                pf8100_get_pmic_version
 .text.pf8100_pmic_set_voltage
                0x000000001ffeab24      0x16c build_mx8qx_b0/drivers/pmic/pf8100/fsl_pf8100.o
                0x000000001ffeab24                pf8100_pmic_set_voltage
 .text.pf8100_pmic_get_voltage
                0x000000001ffeac90      0x12c build_mx8qx_b0/drivers/pmic/pf8100/fsl_pf8100.o
                0x000000001ffeac90                pf8100_pmic_get_voltage
 .text.pf8100_pmic_set_mode
                0x000000001ffeadbc       0xa0 build_mx8qx_b0/drivers/pmic/pf8100/fsl_pf8100.o
                0x000000001ffeadbc                pf8100_pmic_set_mode
 .text.pf8100_get_pmic_temp
                0x000000001ffeae5c       0x7e build_mx8qx_b0/drivers/pmic/pf8100/fsl_pf8100.o
                0x000000001ffeae5c                pf8100_get_pmic_temp
 .text.pf8100_set_pmic_temp_alarm
                0x000000001ffeaeda       0x84 build_mx8qx_b0/drivers/pmic/pf8100/fsl_pf8100.o
                0x000000001ffeaeda                pf8100_set_pmic_temp_alarm
 *fill*         0x000000001ffeaf5e        0x2 
 .text.pf8100_pmic_register_access
                0x000000001ffeaf60       0x44 build_mx8qx_b0/drivers/pmic/pf8100/fsl_pf8100.o
                0x000000001ffeaf60                pf8100_pmic_register_access
 .text.pf8100_pmic_irq_service
                0x000000001ffeafa4       0x60 build_mx8qx_b0/drivers/pmic/pf8100/fsl_pf8100.o
                0x000000001ffeafa4                pf8100_pmic_irq_service
 .text.pf100_pmic_get_voltage
                0x000000001ffeb004      0x1d8 build_mx8qx_b0/drivers/pmic/pf100/fsl_pf100.o
                0x000000001ffeb004                pf100_pmic_get_voltage
 .text.pf100_pmic_register_access
                0x000000001ffeb1dc       0x44 build_mx8qx_b0/drivers/pmic/pf100/fsl_pf100.o
                0x000000001ffeb1dc                pf100_pmic_register_access
 .text.ss_init  0x000000001ffeb220       0x20 build_mx8qx_b0/ss/inf/inf.o
                0x000000001ffeb220                ss_init
 .text.ss_trans_power_mode
                0x000000001ffeb240       0x68 build_mx8qx_b0/ss/inf/inf.o
                0x000000001ffeb240                ss_trans_power_mode
 .text.ss_set_cpu_power_mode
                0x000000001ffeb2a8       0x54 build_mx8qx_b0/ss/inf/inf.o
                0x000000001ffeb2a8                ss_set_cpu_power_mode
 .text.ss_set_cpu_resume
                0x000000001ffeb2fc       0x60 build_mx8qx_b0/ss/inf/inf.o
                0x000000001ffeb2fc                ss_set_cpu_resume
 .text.ss_req_sys_if_power_mode
                0x000000001ffeb35c       0x58 build_mx8qx_b0/ss/inf/inf.o
                0x000000001ffeb35c                ss_req_sys_if_power_mode
 .text.ss_updown
                0x000000001ffeb3b4       0x2c build_mx8qx_b0/ss/inf/inf.o
                0x000000001ffeb3b4                ss_updown
 .text.ss_prepost_power_mode
                0x000000001ffeb3e0       0x38 build_mx8qx_b0/ss/inf/inf.o
                0x000000001ffeb3e0                ss_prepost_power_mode
 .text.ss_iso_disable
                0x000000001ffeb418       0x28 build_mx8qx_b0/ss/inf/inf.o
                0x000000001ffeb418                ss_iso_disable
 .text.ss_link_enable
                0x000000001ffeb440       0x28 build_mx8qx_b0/ss/inf/inf.o
                0x000000001ffeb440                ss_link_enable
 .text.ss_ssi_power
                0x000000001ffeb468       0x2c build_mx8qx_b0/ss/inf/inf.o
                0x000000001ffeb468                ss_ssi_power
 .text.ss_ssi_bhole_mode
                0x000000001ffeb494       0x28 build_mx8qx_b0/ss/inf/inf.o
                0x000000001ffeb494                ss_ssi_bhole_mode
 .text.ss_ssi_pause_mode
                0x000000001ffeb4bc       0x28 build_mx8qx_b0/ss/inf/inf.o
                0x000000001ffeb4bc                ss_ssi_pause_mode
 .text.ss_ssi_wait_idle
                0x000000001ffeb4e4       0x28 build_mx8qx_b0/ss/inf/inf.o
                0x000000001ffeb4e4                ss_ssi_wait_idle
 .text.ss_adb_enable
                0x000000001ffeb50c       0x28 build_mx8qx_b0/ss/inf/inf.o
                0x000000001ffeb50c                ss_adb_enable
 .text.ss_adb_wait
                0x000000001ffeb534       0x28 build_mx8qx_b0/ss/inf/inf.o
                0x000000001ffeb534                ss_adb_wait
 .text.ss_set_clock_rate
                0x000000001ffeb55c       0x5c build_mx8qx_b0/ss/inf/inf.o
                0x000000001ffeb55c                ss_set_clock_rate
 .text.ss_get_clock_rate
                0x000000001ffeb5b8       0x5c build_mx8qx_b0/ss/inf/inf.o
                0x000000001ffeb5b8                ss_get_clock_rate
 .text.ss_clock_enable
                0x000000001ffeb614       0x60 build_mx8qx_b0/ss/inf/inf.o
                0x000000001ffeb614                ss_clock_enable
 .text.ss_force_clock_enable
                0x000000001ffeb674       0x5c build_mx8qx_b0/ss/inf/inf.o
                0x000000001ffeb674                ss_force_clock_enable
 .text.ss_set_clock_parent
                0x000000001ffeb6d0       0x5c build_mx8qx_b0/ss/inf/inf.o
                0x000000001ffeb6d0                ss_set_clock_parent
 .text.ss_get_clock_parent
                0x000000001ffeb72c       0x5c build_mx8qx_b0/ss/inf/inf.o
                0x000000001ffeb72c                ss_get_clock_parent
 .text.ss_prepost_clock_mode
                0x000000001ffeb788       0x30 build_mx8qx_b0/ss/inf/inf.o
                0x000000001ffeb788                ss_prepost_clock_mode
 .text.ss_cpu_start
                0x000000001ffeb7b8       0x60 build_mx8qx_b0/ss/inf/inf.o
                0x000000001ffeb7b8                ss_cpu_start
 .text.ss_rdc_enable
                0x000000001ffeb818       0x2c build_mx8qx_b0/ss/inf/inf.o
                0x000000001ffeb818                ss_rdc_enable
 .text.ss_rdc_set_master
                0x000000001ffeb844       0x70 build_mx8qx_b0/ss/inf/inf.o
                0x000000001ffeb844                ss_rdc_set_master
 .text.ss_rdc_set_peripheral
                0x000000001ffeb8b4       0x58 build_mx8qx_b0/ss/inf/inf.o
                0x000000001ffeb8b4                ss_rdc_set_peripheral
 .text.ss_rdc_is_did_vld
                0x000000001ffeb90c       0x30 build_mx8qx_b0/ss/inf/inf.o
                0x000000001ffeb90c                ss_rdc_is_did_vld
 .text.ss_set_control
                0x000000001ffeb93c       0x5c build_mx8qx_b0/ss/inf/inf.o
                0x000000001ffeb93c                ss_set_control
 .text.ss_get_control
                0x000000001ffeb998       0x5c build_mx8qx_b0/ss/inf/inf.o
                0x000000001ffeb998                ss_get_control
 .text.ss_irq_enable
                0x000000001ffeb9f4       0x60 build_mx8qx_b0/ss/inf/inf.o
                0x000000001ffeb9f4                ss_irq_enable
 .text.ss_irq_status
                0x000000001ffeba54       0x5c build_mx8qx_b0/ss/inf/inf.o
                0x000000001ffeba54                ss_irq_status
 .text.ss_irq_trigger
                0x000000001ffebab0       0x54 build_mx8qx_b0/ss/inf/inf.o
                0x000000001ffebab0                ss_irq_trigger
 .text.ss_get_resource
                0x000000001ffebb04       0x38 build_mx8qx_b0/ss/inf/inf.o
                0x000000001ffebb04                ss_get_resource
 .text.ss_overlap
                0x000000001ffebb3c       0x58 build_mx8qx_b0/ss/inf/inf.o
                0x000000001ffebb3c                ss_overlap
 .text.ss_rdc_set_memory
                0x000000001ffebb94      0x344 build_mx8qx_b0/ss/inf/inf.o
                0x000000001ffebb94                ss_rdc_set_memory
 .text.ss_temp_sensor
                0x000000001ffebed8       0x58 build_mx8qx_b0/ss/inf/inf.o
                0x000000001ffebed8                ss_temp_sensor
 .text.ss_dsc_handler_mu
                0x000000001ffebf30       0x18 build_mx8qx_b0/ss/sc/v2/ss.o
 .text.ss_dsc_handler_reset.isra.0
                0x000000001ffebf48       0x36 build_mx8qx_b0/ss/sc/v2/ss.o
 .text.ss_dsc_handler_uecc_seco
                0x000000001ffebf7e        0x8 build_mx8qx_b0/ss/sc/v2/ss.o
 .text.ss_dsc_handler_lockup_seco
                0x000000001ffebf86        0x8 build_mx8qx_b0/ss/sc/v2/ss.o
 .text.ss_dsc_handler_wdog_seco
                0x000000001ffebf8e        0x8 build_mx8qx_b0/ss/sc/v2/ss.o
 .text.ss_dsc_handler_swrst_seco
                0x000000001ffebf96        0x8 build_mx8qx_b0/ss/sc/v2/ss.o
 *fill*         0x000000001ffebf9e        0x2 
 .text.ss_init_sc
                0x000000001ffebfa0       0x80 build_mx8qx_b0/ss/sc/v2/ss.o
                0x000000001ffebfa0                ss_init_sc
 .text.ss_prepost_power_mode_sc
                0x000000001ffec020       0xd0 build_mx8qx_b0/ss/sc/v2/ss.o
                0x000000001ffec020                ss_prepost_power_mode_sc
 .text.ss_timestamp_enable_sc
                0x000000001ffec0f0       0x28 build_mx8qx_b0/ss/sc/v2/ss.o
                0x000000001ffec0f0                ss_timestamp_enable_sc
 .text.ss_earlywdog_handler_sc
                0x000000001ffec118        0xe build_mx8qx_b0/ss/sc/v2/ss.o
                0x000000001ffec118                ss_earlywdog_handler_sc
 *fill*         0x000000001ffec126        0x2 
 .text.ss_csreq_handler_dbgpwrup
                0x000000001ffec128       0x30 build_mx8qx_b0/ss/sc/v2/ss.o
                0x000000001ffec128                ss_csreq_handler_dbgpwrup
 .text.ss_rdc_enable_sc
                0x000000001ffec158       0x32 build_mx8qx_b0/ss/sc/v2/ss.o
                0x000000001ffec158                ss_rdc_enable_sc
 *fill*         0x000000001ffec18a        0x2 
 .text.ss_rdc_set_master_sc
                0x000000001ffec18c       0xc4 build_mx8qx_b0/ss/sc/v2/ss.o
                0x000000001ffec18c                ss_rdc_set_master_sc
 .text.ss_rdc_set_peripheral_sc
                0x000000001ffec250       0x2e build_mx8qx_b0/ss/sc/v2/ss.o
                0x000000001ffec250                ss_rdc_set_peripheral_sc
 .text.ss_dsc_handler_irqstr_wake3
                0x000000001ffec27e        0xa build_mx8qx_b0/ss/adma/v2/ss.o
 .text.ss_dsc_handler_irqstr_wake1
                0x000000001ffec288        0xc build_mx8qx_b0/ss/adma/v2/ss.o
 .text.ss_dsc_handler_wakeup0_3
                0x000000001ffec294        0xe build_mx8qx_b0/ss/adma/v2/ss.o
 .text.ss_dsc_handler_wakeup0_2
                0x000000001ffec2a2        0xe build_mx8qx_b0/ss/adma/v2/ss.o
 .text.ss_dsc_handler_wakeup0_1
                0x000000001ffec2b0        0xe build_mx8qx_b0/ss/adma/v2/ss.o
 .text.ss_dsc_handler_wakeup0_0
                0x000000001ffec2be        0xe build_mx8qx_b0/ss/adma/v2/ss.o
 .text.ss_trans_power_mode_adma
                0x000000001ffec2cc       0x60 build_mx8qx_b0/ss/adma/v2/ss.o
                0x000000001ffec2cc                ss_trans_power_mode_adma
 .text.ss_updown_adma
                0x000000001ffec32c       0x58 build_mx8qx_b0/ss/adma/v2/ss.o
                0x000000001ffec32c                ss_updown_adma
 .text.ss_set_clock_parent_adma
                0x000000001ffec384       0x78 build_mx8qx_b0/ss/adma/v2/ss.o
                0x000000001ffec384                ss_set_clock_parent_adma
 .text.ss_prepost_power_mode_adma
                0x000000001ffec3fc       0xec build_mx8qx_b0/ss/adma/v2/ss.o
                0x000000001ffec3fc                ss_prepost_power_mode_adma
 .text.ss_link_enable_adma
                0x000000001ffec4e8       0x1e build_mx8qx_b0/ss/adma/v2/ss.o
                0x000000001ffec4e8                ss_link_enable_adma
 .text.ss_adb_enable_adma
                0x000000001ffec506        0xc build_mx8qx_b0/ss/adma/v2/ss.o
                0x000000001ffec506                ss_adb_enable_adma
 .text.ss_adb_wait_adma
                0x000000001ffec512        0xc build_mx8qx_b0/ss/adma/v2/ss.o
                0x000000001ffec512                ss_adb_wait_adma
 *fill*         0x000000001ffec51e        0x2 
 .text.ss_cpu_start_adma
                0x000000001ffec520       0x8c build_mx8qx_b0/ss/adma/v2/ss.o
                0x000000001ffec520                ss_cpu_start_adma
 .text.ss_set_control_adma
                0x000000001ffec5ac      0x134 build_mx8qx_b0/ss/adma/v2/ss.o
                0x000000001ffec5ac                ss_set_control_adma
 .text.ss_dsc_handler_mu
                0x000000001ffec6e0       0x50 build_mx8qx_b0/ss/lsio/v2/ss.o
 .text.ss_init_lsio
                0x000000001ffec730       0x48 build_mx8qx_b0/ss/lsio/v2/ss.o
                0x000000001ffec730                ss_init_lsio
 .text.ss_prepost_power_mode_lsio
                0x000000001ffec778       0x9c build_mx8qx_b0/ss/lsio/v2/ss.o
                0x000000001ffec778                ss_prepost_power_mode_lsio
 .text.ss_irq_enable_lsio
                0x000000001ffec814       0x84 build_mx8qx_b0/ss/lsio/v2/ss.o
                0x000000001ffec814                ss_irq_enable_lsio
 .text.ss_irq_status_lsio
                0x000000001ffec898       0x28 build_mx8qx_b0/ss/lsio/v2/ss.o
                0x000000001ffec898                ss_irq_status_lsio
 .text.ss_irq_trigger_lsio
                0x000000001ffec8c0       0x90 build_mx8qx_b0/ss/lsio/v2/ss.o
                0x000000001ffec8c0                ss_irq_trigger_lsio
 .text.ss_dsc_handler_dbgack
                0x000000001ffec950       0x1e build_mx8qx_b0/ss/a35/v1/ss.o
 .text.ss_dsc_handler_wfi_a35_3
                0x000000001ffec96e       0x20 build_mx8qx_b0/ss/a35/v1/ss.o
 .text.ss_dsc_handler_wfi_a35_2
                0x000000001ffec98e       0x20 build_mx8qx_b0/ss/a35/v1/ss.o
 .text.ss_dsc_handler_wfi_a35_1
                0x000000001ffec9ae       0x20 build_mx8qx_b0/ss/a35/v1/ss.o
 .text.ss_dsc_handler_wfi_a35_0
                0x000000001ffec9ce       0x20 build_mx8qx_b0/ss/a35/v1/ss.o
 *fill*         0x000000001ffec9ee        0x2 
 .text.ss_init_a35
                0x000000001ffec9f0       0x30 build_mx8qx_b0/ss/a35/v1/ss.o
                0x000000001ffec9f0                ss_init_a35
 .text.ss_updown_a35
                0x000000001ffeca20       0xac build_mx8qx_b0/ss/a35/v1/ss.o
                0x000000001ffeca20                ss_updown_a35
 .text.ss_prepost_power_mode_a35
                0x000000001ffecacc       0xd4 build_mx8qx_b0/ss/a35/v1/ss.o
                0x000000001ffecacc                ss_prepost_power_mode_a35
 .text.ss_link_enable_a35
                0x000000001ffecba0       0x2a build_mx8qx_b0/ss/a35/v1/ss.o
                0x000000001ffecba0                ss_link_enable_a35
 .text.ss_adb_enable_a35
                0x000000001ffecbca        0x6 build_mx8qx_b0/ss/a35/v1/ss.o
                0x000000001ffecbca                ss_adb_enable_a35
 .text.ss_adb_wait_a35
                0x000000001ffecbd0        0x6 build_mx8qx_b0/ss/a35/v1/ss.o
                0x000000001ffecbd0                ss_adb_wait_a35
 *fill*         0x000000001ffecbd6        0x2 
 .text.ss_cpu_start_a35
                0x000000001ffecbd8      0x1a0 build_mx8qx_b0/ss/a35/v1/ss.o
                0x000000001ffecbd8                ss_cpu_start_a35
 .text.ss_set_clock_rate_a35
                0x000000001ffecd78       0x54 build_mx8qx_b0/ss/a35/v1/ss.o
                0x000000001ffecd78                ss_set_clock_rate_a35
 .text.ss_rdc_set_master_a35
                0x000000001ffecdcc       0x34 build_mx8qx_b0/ss/a35/v1/ss.o
                0x000000001ffecdcc                ss_rdc_set_master_a35
 .text.ss_set_cpu_resume_a35
                0x000000001ffece00       0x16 build_mx8qx_b0/ss/a35/v1/ss.o
                0x000000001ffece00                ss_set_cpu_resume_a35
 .text.ss_set_cpu_power_mode_a35
                0x000000001ffece16       0x56 build_mx8qx_b0/ss/a35/v1/ss.o
                0x000000001ffece16                ss_set_cpu_power_mode_a35
 .text.ss_req_sys_if_power_mode_a35
                0x000000001ffece6c       0x1a build_mx8qx_b0/ss/a35/v1/ss.o
                0x000000001ffece6c                ss_req_sys_if_power_mode_a35
 .text.ss_csreq_handler_a35
                0x000000001ffece86       0x64 build_mx8qx_b0/ss/a35/v1/ss.o
                0x000000001ffece86                ss_csreq_handler_a35
 .text.ss_dbg_status_a35
                0x000000001ffeceea        0xc build_mx8qx_b0/ss/a35/v1/ss.o
                0x000000001ffeceea                ss_dbg_status_a35
 .text.ss_dbg_resume_a35
                0x000000001ffecef6       0x16 build_mx8qx_b0/ss/a35/v1/ss.o
                0x000000001ffecef6                ss_dbg_resume_a35
 .text.ss_dsc_handler_default
                0x000000001ffecf0c        0x4 build_mx8qx_b0/ss/base/ss.o
                0x000000001ffecf0c                ss_dsc_handler_default
 .text.ss_can_reparent_disable
                0x000000001ffecf10       0x68 build_mx8qx_b0/ss/base/ss.o
 .text.ss_dsc_handler_temp
                0x000000001ffecf78       0x40 build_mx8qx_b0/ss/base/ss.o
 .text.ss_init_boot_base
                0x000000001ffecfb8       0x90 build_mx8qx_b0/ss/base/ss.o
                0x000000001ffecfb8                ss_init_boot_base
 .text.ss_set_cpu_power_mode_base
                0x000000001ffed048        0x4 build_mx8qx_b0/ss/base/ss.o
                0x000000001ffed048                ss_set_cpu_power_mode_base
 .text.ss_set_cpu_resume_base
                0x000000001ffed04c        0x4 build_mx8qx_b0/ss/base/ss.o
                0x000000001ffed04c                ss_set_cpu_resume_base
 .text.ss_req_sys_if_power_mode_base
                0x000000001ffed050        0x4 build_mx8qx_b0/ss/base/ss.o
                0x000000001ffed050                ss_req_sys_if_power_mode_base
 .text.ss_updown_base
                0x000000001ffed054        0x2 build_mx8qx_b0/ss/base/ss.o
                0x000000001ffed054                ss_updown_base
 .text.ss_prepost_power_mode_base
                0x000000001ffed056        0x2 build_mx8qx_b0/ss/base/ss.o
                0x000000001ffed056                ss_prepost_power_mode_base
 .text.ss_iso_disable_base
                0x000000001ffed058       0x54 build_mx8qx_b0/ss/base/ss.o
                0x000000001ffed058                ss_iso_disable_base
 .text.ss_ssi_power_base
                0x000000001ffed0ac       0x6c build_mx8qx_b0/ss/base/ss.o
                0x000000001ffed0ac                ss_ssi_power_base
 .text.ss_ssi_bhole_mode_base
                0x000000001ffed118       0x2c build_mx8qx_b0/ss/base/ss.o
                0x000000001ffed118                ss_ssi_bhole_mode_base
 .text.ss_ssi_pause_mode_base
                0x000000001ffed144       0x20 build_mx8qx_b0/ss/base/ss.o
                0x000000001ffed144                ss_ssi_pause_mode_base
 .text.ss_ssi_wait_idle_base
                0x000000001ffed164       0x40 build_mx8qx_b0/ss/base/ss.o
                0x000000001ffed164                ss_ssi_wait_idle_base
 .text.ss_adb_enable_base
                0x000000001ffed1a4        0x2 build_mx8qx_b0/ss/base/ss.o
                0x000000001ffed1a4                ss_adb_enable_base
 .text.ss_adb_wait_base
                0x000000001ffed1a6        0x2 build_mx8qx_b0/ss/base/ss.o
                0x000000001ffed1a6                ss_adb_wait_base
 .text.ss_get_clock_parent_base
                0x000000001ffed1a8       0x58 build_mx8qx_b0/ss/base/ss.o
                0x000000001ffed1a8                ss_get_clock_parent_base
 .text.ss_prepost_clock_mode_base
                0x000000001ffed200        0x2 build_mx8qx_b0/ss/base/ss.o
                0x000000001ffed200                ss_prepost_clock_mode_base
 *fill*         0x000000001ffed202        0x2 
 .text.ss_is_rsrc_accessible_base
                0x000000001ffed204       0x34 build_mx8qx_b0/ss/base/ss.o
                0x000000001ffed204                ss_is_rsrc_accessible_base
 .text.ss_cpu_start_base
                0x000000001ffed238        0x4 build_mx8qx_b0/ss/base/ss.o
                0x000000001ffed238                ss_cpu_start_base
 .text.ss_rdc_set_memory_base
                0x000000001ffed23c      0x2f4 build_mx8qx_b0/ss/base/ss.o
                0x000000001ffed23c                ss_rdc_set_memory_base
 .text.ss_rdc_is_did_vld_base
                0x000000001ffed530       0x74 build_mx8qx_b0/ss/base/ss.o
                0x000000001ffed530                ss_rdc_is_did_vld_base
 .text.ss_set_control_base
                0x000000001ffed5a4      0x31c build_mx8qx_b0/ss/base/ss.o
                0x000000001ffed5a4                ss_set_control_base
 .text.ss_get_control_base
                0x000000001ffed8c0      0x1b8 build_mx8qx_b0/ss/base/ss.o
                0x000000001ffed8c0                ss_get_control_base
 .text.ss_irq_enable_base
                0x000000001ffeda78        0x4 build_mx8qx_b0/ss/base/ss.o
                0x000000001ffeda78                ss_irq_enable_base
 .text.ss_irq_status_base
                0x000000001ffeda7c        0x4 build_mx8qx_b0/ss/base/ss.o
                0x000000001ffeda7c                ss_irq_status_base
 .text.ss_irq_trigger_base
                0x000000001ffeda80        0x4 build_mx8qx_b0/ss/base/ss.o
                0x000000001ffeda80                ss_irq_trigger_base
 .text.ss_dump_xrdc_base
                0x000000001ffeda84      0x224 build_mx8qx_b0/ss/base/ss.o
                0x000000001ffeda84                ss_dump_xrdc_base
 .text.ss_dump_base
                0x000000001ffedca8       0x40 build_mx8qx_b0/ss/base/ss.o
                0x000000001ffedca8                ss_dump_base
 .text.ss_qchannel_power
                0x000000001ffedce8       0xaa build_mx8qx_b0/ss/base/ss.o
                0x000000001ffedce8                ss_qchannel_power
 *fill*         0x000000001ffedd92        0x2 
 .text.ss_ssi_link
                0x000000001ffedd94       0xb8 build_mx8qx_b0/ss/base/ss.o
                0x000000001ffedd94                ss_ssi_link
 .text.ss_link_enable_base
                0x000000001ffede4c       0x28 build_mx8qx_b0/ss/base/ss.o
                0x000000001ffede4c                ss_link_enable_base
 .text.ss_adb_link
                0x000000001ffede74       0x6c build_mx8qx_b0/ss/base/ss.o
                0x000000001ffede74                ss_adb_link
 .text.ss_adb_enb
                0x000000001ffedee0       0x28 build_mx8qx_b0/ss/base/ss.o
                0x000000001ffedee0                ss_adb_enb
 .text.ss_adb_x2_enb
                0x000000001ffedf08       0x30 build_mx8qx_b0/ss/base/ss.o
                0x000000001ffedf08                ss_adb_x2_enb
 .text.ss_adb_wt
                0x000000001ffedf38       0x34 build_mx8qx_b0/ss/base/ss.o
                0x000000001ffedf38                ss_adb_wt
 .text.ss_adb_x2_wt
                0x000000001ffedf6c       0x3c build_mx8qx_b0/ss/base/ss.o
                0x000000001ffedf6c                ss_adb_x2_wt
 .text.ss_config_pll_rate
                0x000000001ffedfa8       0xc8 build_mx8qx_b0/ss/base/ss.o
                0x000000001ffedfa8                ss_config_pll_rate
 .text.ss_config_pll_mode
                0x000000001ffee070       0xb0 build_mx8qx_b0/ss/base/ss.o
                0x000000001ffee070                ss_config_pll_mode
 .text.ss_populate_boot_dev_info
                0x000000001ffee120      0x1d0 build_mx8qx_b0/ss/base/ss.o
                0x000000001ffee120                ss_populate_boot_dev_info
 .text.ss_init_base
                0x000000001ffee2f0      0x164 build_mx8qx_b0/ss/base/ss.o
                0x000000001ffee2f0                ss_init_base
 .text.ss_get_parent_index
                0x000000001ffee454       0xa0 build_mx8qx_b0/ss/base/ss.o
                0x000000001ffee454                ss_get_parent_index
 .text.ss_config_clk_rate
                0x000000001ffee4f4      0x2ec build_mx8qx_b0/ss/base/ss.o
                0x000000001ffee4f4                ss_config_clk_rate
 .text.ss_set_clock_rate_base
                0x000000001ffee7e0       0x58 build_mx8qx_b0/ss/base/ss.o
                0x000000001ffee7e0                ss_set_clock_rate_base
 .text.ss_config_clks
                0x000000001ffee838      0x12c build_mx8qx_b0/ss/base/ss.o
 .text.ss_config_clk_mode
                0x000000001ffee964      0x19c build_mx8qx_b0/ss/base/ss.o
                0x000000001ffee964                ss_config_clk_mode
 .text.ss_clock_enable_base
                0x000000001ffeeb00       0xcc build_mx8qx_b0/ss/base/ss.o
                0x000000001ffeeb00                ss_clock_enable_base
 .text.ss_force_clock_enable_base
                0x000000001ffeebcc       0x84 build_mx8qx_b0/ss/base/ss.o
                0x000000001ffeebcc                ss_force_clock_enable_base
 .text.ss_set_rsrc_clks
                0x000000001ffeec50       0x68 build_mx8qx_b0/ss/base/ss.o
                0x000000001ffeec50                ss_set_rsrc_clks
 .text.ss_config_auto_clk_mode
                0x000000001ffeecb8      0x1f8 build_mx8qx_b0/ss/base/ss.o
 .text.ss_get_clk_rate_by_index
                0x000000001ffeeeb0       0xe4 build_mx8qx_b0/ss/base/ss.o
                0x000000001ffeeeb0                ss_get_clk_rate_by_index
 .text.ss_get_clock_rate_base
                0x000000001ffeef94       0x1c build_mx8qx_b0/ss/base/ss.o
                0x000000001ffeef94                ss_get_clock_rate_base
 .text.ss_set_parent_by_index
                0x000000001ffeefb0       0x6c build_mx8qx_b0/ss/base/ss.o
                0x000000001ffeefb0                ss_set_parent_by_index
 .text.ss_set_clock_parent_base
                0x000000001ffef01c       0x70 build_mx8qx_b0/ss/base/ss.o
                0x000000001ffef01c                ss_set_clock_parent_base
 .text.ss_do_mem_repair
                0x000000001ffef08c      0x124 build_mx8qx_b0/ss/base/ss.o
                0x000000001ffef08c                ss_do_mem_repair
 .text.ss_refactor_clks
                0x000000001ffef1b0      0x25c build_mx8qx_b0/ss/base/ss.o
                0x000000001ffef1b0                ss_refactor_clks
 .text.ss_active_fbb_domains
                0x000000001ffef40c       0x68 build_mx8qx_b0/ss/base/ss.o
                0x000000001ffef40c                ss_active_fbb_domains
 .text.ss_ap_reset_vector
                0x000000001ffef474       0x5c build_mx8qx_b0/ss/base/ss.o
                0x000000001ffef474                ss_ap_reset_vector
 .text.ss_rdc_power_down
                0x000000001ffef4d0       0x8c build_mx8qx_b0/ss/base/ss.o
                0x000000001ffef4d0                ss_rdc_power_down
 .text.ss_rdc_set_custom_mda
                0x000000001ffef55c      0x14c build_mx8qx_b0/ss/base/ss.o
                0x000000001ffef55c                ss_rdc_set_custom_mda
 .text.ss_rdc_set_custom_master
                0x000000001ffef6a8       0x70 build_mx8qx_b0/ss/base/ss.o
                0x000000001ffef6a8                ss_rdc_set_custom_master
 .text.ss_rdc_set_master_base
                0x000000001ffef718       0xfc build_mx8qx_b0/ss/base/ss.o
                0x000000001ffef718                ss_rdc_set_master_base
 .text.ss_dsc_irq_handler_base
                0x000000001ffef814       0xa4 build_mx8qx_b0/ss/base/ss.o
                0x000000001ffef814                ss_dsc_irq_handler_base
 .text.clear_xrdc_cache
                0x000000001ffef8b8       0xac build_mx8qx_b0/ss/base/ss.o
                0x000000001ffef8b8                clear_xrdc_cache
 .text.ss_trans_pd
                0x000000001ffef964      0x418 build_mx8qx_b0/ss/base/ss.o
                0x000000001ffef964                ss_trans_pd
 .text.ss_trans_power_mode_base
                0x000000001ffefd7c      0x22c build_mx8qx_b0/ss/base/ss.o
                0x000000001ffefd7c                ss_trans_power_mode_base
 .text.rdc_set_peripheral
                0x000000001ffeffa8       0xc4 build_mx8qx_b0/ss/base/ss.o
                0x000000001ffeffa8                rdc_set_peripheral
 .text.ss_rdc_set_peripheral_base
                0x000000001fff006c      0x108 build_mx8qx_b0/ss/base/ss.o
                0x000000001fff006c                ss_rdc_set_peripheral_base
 .text.ss_rdc_enable_base
                0x000000001fff0174      0x130 build_mx8qx_b0/ss/base/ss.o
                0x000000001fff0174                ss_rdc_enable_base
 .text.ss_prepost_power_mode_conn
                0x000000001fff02a4       0x6c build_mx8qx_b0/ss/conn/v1/ss.o
                0x000000001fff02a4                ss_prepost_power_mode_conn
 .text.ss_iso_disable_conn
                0x000000001fff0310       0x50 build_mx8qx_b0/ss/conn/v1/ss.o
                0x000000001fff0310                ss_iso_disable_conn
 .text.ss_updown_conn
                0x000000001fff0360       0x18 build_mx8qx_b0/ss/conn/v1/ss.o
                0x000000001fff0360                ss_updown_conn
 .text.ss_set_control_conn
                0x000000001fff0378      0x110 build_mx8qx_b0/ss/conn/v1/ss.o
                0x000000001fff0378                ss_set_control_conn
 .text.ss_get_control_conn
                0x000000001fff0488       0x60 build_mx8qx_b0/ss/conn/v1/ss.o
                0x000000001fff0488                ss_get_control_conn
 .text.ss_init_csi
                0x000000001fff04e8       0x50 build_mx8qx_b0/ss/csi/v1/ss.o
                0x000000001fff04e8                ss_init_csi
 .text.ss_link_enable_db
                0x000000001fff0538      0x104 build_mx8qx_b0/ss/db/v2/ss.o
                0x000000001fff0538                ss_link_enable_db
 .text.ss_ssi_bhole_mode_db
                0x000000001fff063c       0x58 build_mx8qx_b0/ss/db/v2/ss.o
                0x000000001fff063c                ss_ssi_bhole_mode_db
 .text.ss_ssi_pause_mode_db
                0x000000001fff0694       0x4c build_mx8qx_b0/ss/db/v2/ss.o
                0x000000001fff0694                ss_ssi_pause_mode_db
 .text.ss_ssi_wait_idle_db
                0x000000001fff06e0       0x4c build_mx8qx_b0/ss/db/v2/ss.o
                0x000000001fff06e0                ss_ssi_wait_idle_db
 .text.ss_adb_enable_db
                0x000000001fff072c        0x6 build_mx8qx_b0/ss/db/v2/ss.o
                0x000000001fff072c                ss_adb_enable_db
 .text.ss_adb_wait_db
                0x000000001fff0732        0x6 build_mx8qx_b0/ss/db/v2/ss.o
                0x000000001fff0732                ss_adb_wait_db
 .text.ss_updown_db
                0x000000001fff0738       0x5c build_mx8qx_b0/ss/db/v2/ss.o
                0x000000001fff0738                ss_updown_db
 .text.ss_rdc_enable_db
                0x000000001fff0794      0x158 build_mx8qx_b0/ss/db/v2/ss.o
                0x000000001fff0794                ss_rdc_enable_db
 .text.ss_rdc_set_memory_db
                0x000000001fff08ec      0x1b4 build_mx8qx_b0/ss/db/v2/ss.o
                0x000000001fff08ec                ss_rdc_set_memory_db
 .text.ss_rdc_set_master_dc
                0x000000001fff0aa0       0xf0 build_mx8qx_b0/ss/dc/v1/ss.o
                0x000000001fff0aa0                ss_rdc_set_master_dc
 .text.ss_trans_power_mode_dc
                0x000000001fff0b90       0x6c build_mx8qx_b0/ss/dc/v1/ss.o
                0x000000001fff0b90                ss_trans_power_mode_dc
 .text.ss_set_clock_rate_dc
                0x000000001fff0bfc       0xf0 build_mx8qx_b0/ss/dc/v1/ss.o
                0x000000001fff0bfc                ss_set_clock_rate_dc
 .text.ss_clock_enable_dc
                0x000000001fff0cec       0xd8 build_mx8qx_b0/ss/dc/v1/ss.o
                0x000000001fff0cec                ss_clock_enable_dc
 .text.ss_set_clock_parent_dc
                0x000000001fff0dc4       0xc0 build_mx8qx_b0/ss/dc/v1/ss.o
                0x000000001fff0dc4                ss_set_clock_parent_dc
 .text.ss_init_drc
                0x000000001fff0e84       0x1c build_mx8qx_b0/ss/drc/v2/ss.o
                0x000000001fff0e84                ss_init_drc
 .text.ss_prepost_power_mode_drc
                0x000000001fff0ea0       0x3c build_mx8qx_b0/ss/drc/v2/ss.o
                0x000000001fff0ea0                ss_prepost_power_mode_drc
 .text.ss_set_clock_rate_drc
                0x000000001fff0edc       0x28 build_mx8qx_b0/ss/drc/v2/ss.o
                0x000000001fff0edc                ss_set_clock_rate_drc
 .text.ss_init_gpu
                0x000000001fff0f04      0x188 build_mx8qx_b0/ss/gpu/v2/ss.o
                0x000000001fff0f04                ss_init_gpu
 .text.ss_prepost_power_mode_gpu
                0x000000001fff108c      0x138 build_mx8qx_b0/ss/gpu/v2/ss.o
                0x000000001fff108c                ss_prepost_power_mode_gpu
 .text.ss_get_clock_rate_gpu
                0x000000001fff11c4       0x48 build_mx8qx_b0/ss/gpu/v2/ss.o
                0x000000001fff11c4                ss_get_clock_rate_gpu
 .text.ss_set_clock_rate_gpu
                0x000000001fff120c       0x24 build_mx8qx_b0/ss/gpu/v2/ss.o
                0x000000001fff120c                ss_set_clock_rate_gpu
 .text.ss_init_hsio
                0x000000001fff1230       0x34 build_mx8qx_b0/ss/hsio/v2/ss.o
                0x000000001fff1230                ss_init_hsio
 .text.ss_prepost_power_mode_hsio
                0x000000001fff1264      0x100 build_mx8qx_b0/ss/hsio/v2/ss.o
                0x000000001fff1264                ss_prepost_power_mode_hsio
 .text.ss_rdc_set_master_hsio
                0x000000001fff1364       0x94 build_mx8qx_b0/ss/hsio/v2/ss.o
                0x000000001fff1364                ss_rdc_set_master_hsio
 .text.ss_set_control_hsio
                0x000000001fff13f8       0x48 build_mx8qx_b0/ss/hsio/v2/ss.o
                0x000000001fff13f8                ss_set_control_hsio
 .text.ss_dsc_handler_mu
                0x000000001fff1440       0x28 build_mx8qx_b0/ss/m4/v1/ss.o
 .text.ss_dsc_handler_lp_run_req
                0x000000001fff1468      0x134 build_mx8qx_b0/ss/m4/v1/ss.o
 .text.ss_dsc_handler_reset.isra.1
                0x000000001fff159c      0x108 build_mx8qx_b0/ss/m4/v1/ss.o
 .text.ss_dsc_handler_uecc
                0x000000001fff16a4        0xa build_mx8qx_b0/ss/m4/v1/ss.o
 .text.ss_dsc_handler_lockup
                0x000000001fff16ae        0xa build_mx8qx_b0/ss/m4/v1/ss.o
 .text.ss_dsc_handler_wdog
                0x000000001fff16b8        0xa build_mx8qx_b0/ss/m4/v1/ss.o
 .text.ss_dsc_handler_swrst
                0x000000001fff16c2        0xa build_mx8qx_b0/ss/m4/v1/ss.o
 .text.ss_dsc_handler_awic_req
                0x000000001fff16cc       0xc6 build_mx8qx_b0/ss/m4/v1/ss.o
 *fill*         0x000000001fff1792        0x2 
 .text.ss_init_m4_landing_zone.constprop.4
                0x000000001fff1794       0xb4 build_mx8qx_b0/ss/m4/v1/ss.o
 .text.ss_init_m4
                0x000000001fff1848       0x80 build_mx8qx_b0/ss/m4/v1/ss.o
                0x000000001fff1848                ss_init_m4
 .text.ss_prepost_power_mode_m4
                0x000000001fff18c8       0xd0 build_mx8qx_b0/ss/m4/v1/ss.o
                0x000000001fff18c8                ss_prepost_power_mode_m4
 .text.ss_cpu_start_m4
                0x000000001fff1998       0xa8 build_mx8qx_b0/ss/m4/v1/ss.o
                0x000000001fff1998                ss_cpu_start_m4
 .text.ss_set_cpu_resume_m4
                0x000000001fff1a40       0x12 build_mx8qx_b0/ss/m4/v1/ss.o
                0x000000001fff1a40                ss_set_cpu_resume_m4
 .text.ss_req_sys_if_power_mode_m4
                0x000000001fff1a52       0x16 build_mx8qx_b0/ss/m4/v1/ss.o
                0x000000001fff1a52                ss_req_sys_if_power_mode_m4
 .text.ss_irq_enable_m4
                0x000000001fff1a68       0x78 build_mx8qx_b0/ss/m4/v1/ss.o
                0x000000001fff1a68                ss_irq_enable_m4
 .text.ss_irq_status_m4
                0x000000001fff1ae0       0x34 build_mx8qx_b0/ss/m4/v1/ss.o
                0x000000001fff1ae0                ss_irq_status_m4
 .text.ss_irq_trigger_m4
                0x000000001fff1b14       0x6c build_mx8qx_b0/ss/m4/v1/ss.o
                0x000000001fff1b14                ss_irq_trigger_m4
 .text.ss_csreq_handler_m4
                0x000000001fff1b80       0xb0 build_mx8qx_b0/ss/m4/v1/ss.o
                0x000000001fff1b80                ss_csreq_handler_m4
 .text.Set_DSI_Fuse
                0x000000001fff1c30       0x36 build_mx8qx_b0/ss/mipi/v2/ss.o
 *fill*         0x000000001fff1c66        0x2 
 .text.ss_init_mipi
                0x000000001fff1c68      0x124 build_mx8qx_b0/ss/mipi/v2/ss.o
                0x000000001fff1c68                ss_init_mipi
 .text.pmic_init
                0x000000001fff1d8c      0x22c build_mx8qx_b0/board/mx8qx_mek/board.o
 .text.board_init
                0x000000001fff1fb8       0x4c build_mx8qx_b0/board/mx8qx_mek/board.o
                0x000000001fff1fb8                board_init
 .text.board_get_debug_uart
                0x000000001fff2004       0x14 build_mx8qx_b0/board/mx8qx_mek/board.o
                0x000000001fff2004                board_get_debug_uart
 .text.board_config_debug_uart
                0x000000001fff2018       0xb4 build_mx8qx_b0/board/mx8qx_mek/board.o
                0x000000001fff2018                board_config_debug_uart
 .text.board_config_sc
                0x000000001fff20cc       0x48 build_mx8qx_b0/board/mx8qx_mek/board.o
                0x000000001fff20cc                board_config_sc
 .text.board_parameter
                0x000000001fff2114       0x10 build_mx8qx_b0/board/mx8qx_mek/board.o
                0x000000001fff2114                board_parameter
 .text.board_rsrc_avail
                0x000000001fff2124        0x4 build_mx8qx_b0/board/mx8qx_mek/board.o
                0x000000001fff2124                board_rsrc_avail
 .text.board_ddr_config
                0x000000001fff2128      0x5bc build_mx8qx_b0/board/mx8qx_mek/board.o
                0x000000001fff2128                board_ddr_config
 .text.board_init_ddr
                0x000000001fff26e4       0x64 build_mx8qx_b0/board/mx8qx_mek/board.o
                0x000000001fff26e4                board_init_ddr
 .text.board_system_config
                0x000000001fff2748      0x2b0 build_mx8qx_b0/board/mx8qx_mek/board.o
                0x000000001fff2748                board_system_config
 .text.board_early_cpu
                0x000000001fff29f8       0x14 build_mx8qx_b0/board/mx8qx_mek/board.o
                0x000000001fff29f8                board_early_cpu
 .text.board_set_power_mode
                0x000000001fff2a0c       0x84 build_mx8qx_b0/board/mx8qx_mek/board.o
                0x000000001fff2a0c                board_set_power_mode
 .text.board_set_voltage
                0x000000001fff2a90       0x78 build_mx8qx_b0/board/mx8qx_mek/board.o
                0x000000001fff2a90                board_set_voltage
 .text.board_trans_resource_power
                0x000000001fff2b08       0x50 build_mx8qx_b0/board/mx8qx_mek/board.o
                0x000000001fff2b08                board_trans_resource_power
 .text.board_power
                0x000000001fff2b58       0x10 build_mx8qx_b0/board/mx8qx_mek/board.o
                0x000000001fff2b58                board_power
 .text.board_reset
                0x000000001fff2b68       0x38 build_mx8qx_b0/board/mx8qx_mek/board.o
                0x000000001fff2b68                board_reset
 .text.board_panic
                0x000000001fff2ba0       0x18 build_mx8qx_b0/board/mx8qx_mek/board.o
                0x000000001fff2ba0                board_panic
 .text.board_fault
                0x000000001fff2bb8       0x20 build_mx8qx_b0/board/mx8qx_mek/board.o
                0x000000001fff2bb8                board_fault
 .text.board_cpu_reset
                0x000000001fff2bd8       0x28 build_mx8qx_b0/board/mx8qx_mek/board.o
                0x000000001fff2bd8                board_cpu_reset
 .text.board_security_violation
                0x000000001fff2c00        0xc build_mx8qx_b0/board/mx8qx_mek/board.o
                0x000000001fff2c00                board_security_violation
 .text.board_get_button_status
                0x000000001fff2c0c        0x4 build_mx8qx_b0/board/mx8qx_mek/board.o
                0x000000001fff2c0c                board_get_button_status
 .text.board_set_control
                0x000000001fff2c10       0x70 build_mx8qx_b0/board/mx8qx_mek/board.o
                0x000000001fff2c10                board_set_control
 .text.board_get_control
                0x000000001fff2c80       0x74 build_mx8qx_b0/board/mx8qx_mek/board.o
                0x000000001fff2c80                board_get_control
 .text.PMIC_IRQHandler
                0x000000001fff2cf4       0x24 build_mx8qx_b0/board/mx8qx_mek/board.o
                0x000000001fff2cf4                PMIC_IRQHandler
 .text.SNVS_Button_IRQHandler
                0x000000001fff2d18       0x12 build_mx8qx_b0/board/mx8qx_mek/board.o
                0x000000001fff2d18                SNVS_Button_IRQHandler
 .text.test_drv
                0x000000001fff2d2a        0x8 build_mx8qx_b0/board/board_common.o
                0x000000001fff2d2a                test_drv
 .text.test_sc  0x000000001fff2d32        0x8 build_mx8qx_b0/board/board_common.o
                0x000000001fff2d32                test_sc
 .text.test_ap  0x000000001fff2d3a        0x8 build_mx8qx_b0/board/board_common.o
                0x000000001fff2d3a                test_ap
 .text.board_monitor
                0x000000001fff2d42        0x4 build_mx8qx_b0/board/board_common.o
                0x000000001fff2d42                board_monitor
 *fill*         0x000000001fff2d46        0x2 
 .text.board_ddr_periodic_enable
                0x000000001fff2d48       0x14 build_mx8qx_b0/board/board_common.o
                0x000000001fff2d48                board_ddr_periodic_enable
 .text.board_tick
                0x000000001fff2d5c       0x30 build_mx8qx_b0/board/board_common.o
                0x000000001fff2d5c                board_tick
 .text.get_pmic_type
                0x000000001fff2d8c       0x38 build_mx8qx_b0/board/pmic.o
 .text.dynamic_pmic_get_voltage
                0x000000001fff2dc4       0x54 build_mx8qx_b0/board/pmic.o
                0x000000001fff2dc4                dynamic_pmic_get_voltage
 .text.dynamic_pmic_register_access
                0x000000001fff2e18       0x54 build_mx8qx_b0/board/pmic.o
                0x000000001fff2e18                dynamic_pmic_register_access
 .text.irq_enable
                0x000000001fff2e6c       0x5c build_mx8qx_b0/svc/irq/svc.o
                0x000000001fff2e6c                irq_enable
 .text.irq_status
                0x000000001fff2ec8       0x5e build_mx8qx_b0/svc/irq/svc.o
                0x000000001fff2ec8                irq_status
 *fill*         0x000000001fff2f26        0x2 
 .text.misc_init
                0x000000001fff2f28       0x1c build_mx8qx_b0/svc/misc/svc.o
                0x000000001fff2f28                misc_init
 .text.misc_set_control
                0x000000001fff2f44       0x72 build_mx8qx_b0/svc/misc/svc.o
                0x000000001fff2f44                misc_set_control
 .text.misc_get_control
                0x000000001fff2fb6       0x54 build_mx8qx_b0/svc/misc/svc.o
                0x000000001fff2fb6                misc_get_control
 .text.misc_set_ari
                0x000000001fff300a       0x80 build_mx8qx_b0/svc/misc/svc.o
                0x000000001fff300a                misc_set_ari
 *fill*         0x000000001fff308a        0x2 
 .text.misc_set_max_dma_group
                0x000000001fff308c       0x48 build_mx8qx_b0/svc/misc/svc.o
                0x000000001fff308c                misc_set_max_dma_group
 .text.misc_set_dma_group
                0x000000001fff30d4       0x54 build_mx8qx_b0/svc/misc/svc.o
                0x000000001fff30d4                misc_set_dma_group
 .text.misc_waveform_capture
                0x000000001fff3128        0x4 build_mx8qx_b0/svc/misc/svc.o
                0x000000001fff3128                misc_waveform_capture
 .text.misc_boot_status
                0x000000001fff312c       0x30 build_mx8qx_b0/svc/misc/svc.o
                0x000000001fff312c                misc_boot_status
 .text.misc_boot_done
                0x000000001fff315c       0x58 build_mx8qx_b0/svc/misc/svc.o
                0x000000001fff315c                misc_boot_done
 .text.misc_boot_done_wait
                0x000000001fff31b4       0x28 build_mx8qx_b0/svc/misc/svc.o
                0x000000001fff31b4                misc_boot_done_wait
 .text.misc_seco_image_load
                0x000000001fff31dc       0x1c build_mx8qx_b0/svc/misc/svc.o
                0x000000001fff31dc                misc_seco_image_load
 .text.misc_seco_authenticate
                0x000000001fff31f8        0x6 build_mx8qx_b0/svc/misc/svc.o
                0x000000001fff31f8                misc_seco_authenticate
 .text.misc_seco_fuse_write
                0x000000001fff31fe        0x8 build_mx8qx_b0/svc/misc/svc.o
                0x000000001fff31fe                misc_seco_fuse_write
 .text.misc_seco_enable_debug
                0x000000001fff3206        0x8 build_mx8qx_b0/svc/misc/svc.o
                0x000000001fff3206                misc_seco_enable_debug
 .text.misc_seco_forward_lifecycle
                0x000000001fff320e        0x6 build_mx8qx_b0/svc/misc/svc.o
                0x000000001fff320e                misc_seco_forward_lifecycle
 .text.misc_seco_return_lifecycle
                0x000000001fff3214        0x8 build_mx8qx_b0/svc/misc/svc.o
                0x000000001fff3214                misc_seco_return_lifecycle
 .text.misc_seco_build_info
                0x000000001fff321c       0x14 build_mx8qx_b0/svc/misc/svc.o
                0x000000001fff321c                misc_seco_build_info
 .text.misc_seco_chip_info
                0x000000001fff3230        0xc build_mx8qx_b0/svc/misc/svc.o
                0x000000001fff3230                misc_seco_chip_info
 .text.misc_seco_attest_mode
                0x000000001fff323c       0x1c build_mx8qx_b0/svc/misc/svc.o
                0x000000001fff323c                misc_seco_attest_mode
 .text.misc_seco_attest
                0x000000001fff3258       0x20 build_mx8qx_b0/svc/misc/svc.o
                0x000000001fff3258                misc_seco_attest
 .text.misc_seco_get_attest_pkey
                0x000000001fff3278       0x20 build_mx8qx_b0/svc/misc/svc.o
                0x000000001fff3278                misc_seco_get_attest_pkey
 .text.misc_seco_get_attest_sign
                0x000000001fff3298       0x20 build_mx8qx_b0/svc/misc/svc.o
                0x000000001fff3298                misc_seco_get_attest_sign
 .text.misc_seco_attest_verify
                0x000000001fff32b8       0x20 build_mx8qx_b0/svc/misc/svc.o
                0x000000001fff32b8                misc_seco_attest_verify
 .text.misc_seco_commit
                0x000000001fff32d8        0x6 build_mx8qx_b0/svc/misc/svc.o
                0x000000001fff32d8                misc_seco_commit
 *fill*         0x000000001fff32de        0x2 
 .text.misc_debug_out
                0x000000001fff32e0        0xc build_mx8qx_b0/svc/misc/svc.o
                0x000000001fff32e0                misc_debug_out
 .text.misc_otp_fuse_read
                0x000000001fff32ec        0x8 build_mx8qx_b0/svc/misc/svc.o
                0x000000001fff32ec                misc_otp_fuse_read
 .text.misc_otp_fuse_write
                0x000000001fff32f4       0x1c build_mx8qx_b0/svc/misc/svc.o
                0x000000001fff32f4                misc_otp_fuse_write
 .text.misc_has_temp
                0x000000001fff3310       0x50 build_mx8qx_b0/svc/misc/svc.o
                0x000000001fff3310                misc_has_temp
 .text.misc_set_temp
                0x000000001fff3360       0xac build_mx8qx_b0/svc/misc/svc.o
                0x000000001fff3360                misc_set_temp
 .text.misc_get_temp
                0x000000001fff340c       0xa8 build_mx8qx_b0/svc/misc/svc.o
                0x000000001fff340c                misc_get_temp
 .text.misc_build_info
                0x000000001fff34b4       0x10 build_mx8qx_b0/svc/misc/svc.o
                0x000000001fff34b4                misc_build_info
 .text.misc_unique_id
                0x000000001fff34c4       0x14 build_mx8qx_b0/svc/misc/svc.o
                0x000000001fff34c4                misc_unique_id
 .text.misc_get_boot_dev
                0x000000001fff34d8       0x12 build_mx8qx_b0/svc/misc/svc.o
                0x000000001fff34d8                misc_get_boot_dev
 .text.misc_get_boot_type
                0x000000001fff34ea       0x44 build_mx8qx_b0/svc/misc/svc.o
                0x000000001fff34ea                misc_get_boot_type
 .text.misc_get_button_status
                0x000000001fff352e        0xc build_mx8qx_b0/svc/misc/svc.o
                0x000000001fff352e                misc_get_button_status
 .text.misc_rompatch_checksum
                0x000000001fff353a        0x6 build_mx8qx_b0/svc/misc/svc.o
                0x000000001fff353a                misc_rompatch_checksum
 .text.pad_mux_okay
                0x000000001fff3540       0x5c build_mx8qx_b0/svc/pad/svc.o
 .text.pad_set  0x000000001fff359c       0x98 build_mx8qx_b0/svc/pad/svc.o
                0x000000001fff359c                pad_set
 .text.pad_set_mux
                0x000000001fff3634       0xa0 build_mx8qx_b0/svc/pad/svc.o
                0x000000001fff3634                pad_set_mux
 .text.pad_set_gp
                0x000000001fff36d4       0x70 build_mx8qx_b0/svc/pad/svc.o
                0x000000001fff36d4                pad_set_gp
 .text.pad_set_wakeup
                0x000000001fff3744       0x74 build_mx8qx_b0/svc/pad/svc.o
                0x000000001fff3744                pad_set_wakeup
 .text.pad_set_all
                0x000000001fff37b8       0xb0 build_mx8qx_b0/svc/pad/svc.o
                0x000000001fff37b8                pad_set_all
 .text.pad_get  0x000000001fff3868       0x34 build_mx8qx_b0/svc/pad/svc.o
                0x000000001fff3868                pad_get
 .text.pad_get_mux
                0x000000001fff389c       0x38 build_mx8qx_b0/svc/pad/svc.o
                0x000000001fff389c                pad_get_mux
 .text.pad_init
                0x000000001fff38d4       0x6c build_mx8qx_b0/svc/pad/svc.o
                0x000000001fff38d4                pad_init
 .text.pad_get_gp
                0x000000001fff3940       0x34 build_mx8qx_b0/svc/pad/svc.o
                0x000000001fff3940                pad_get_gp
 .text.pad_get_wakeup
                0x000000001fff3974       0x34 build_mx8qx_b0/svc/pad/svc.o
                0x000000001fff3974                pad_get_wakeup
 .text.pad_get_all
                0x000000001fff39a8       0x44 build_mx8qx_b0/svc/pad/svc.o
                0x000000001fff39a8                pad_get_all
 .text.pad_set_gp_28fdsoi
                0x000000001fff39ec       0x84 build_mx8qx_b0/svc/pad/svc.o
                0x000000001fff39ec                pad_set_gp_28fdsoi
 .text.pad_get_gp_28fdsoi
                0x000000001fff3a70       0x3c build_mx8qx_b0/svc/pad/svc.o
                0x000000001fff3a70                pad_get_gp_28fdsoi
 .text.pad_set_gp_28fdsoi_hsic
                0x000000001fff3aac       0x9c build_mx8qx_b0/svc/pad/svc.o
                0x000000001fff3aac                pad_set_gp_28fdsoi_hsic
 .text.pad_get_gp_28fdsoi_hsic
                0x000000001fff3b48       0x48 build_mx8qx_b0/svc/pad/svc.o
                0x000000001fff3b48                pad_get_gp_28fdsoi_hsic
 .text.pad_set_gp_28fdsoi_comp
                0x000000001fff3b90       0x9c build_mx8qx_b0/svc/pad/svc.o
                0x000000001fff3b90                pad_set_gp_28fdsoi_comp
 .text.pad_get_gp_28fdsoi_comp
                0x000000001fff3c2c       0x58 build_mx8qx_b0/svc/pad/svc.o
                0x000000001fff3c2c                pad_get_gp_28fdsoi_comp
 .text.pm_init  0x000000001fff3c84       0x20 build_mx8qx_b0/svc/pm/svc.o
                0x000000001fff3c84                pm_init
 .text.pm_init_part
                0x000000001fff3ca4       0x18 build_mx8qx_b0/svc/pm/svc.o
                0x000000001fff3ca4                pm_init_part
 .text.pm_init_rsrc_power_mode
                0x000000001fff3cbc       0x40 build_mx8qx_b0/svc/pm/svc.o
                0x000000001fff3cbc                pm_init_rsrc_power_mode
 .text.pm_set_sys_power_mode
                0x000000001fff3cfc       0x28 build_mx8qx_b0/svc/pm/svc.o
                0x000000001fff3cfc                pm_set_sys_power_mode
 .text.pm_get_sys_power_mode
                0x000000001fff3d24       0x34 build_mx8qx_b0/svc/pm/svc.o
                0x000000001fff3d24                pm_get_sys_power_mode
 .text.pm_update_ridx
                0x000000001fff3d58       0x80 build_mx8qx_b0/svc/pm/svc.o
                0x000000001fff3d58                pm_update_ridx
 .text.pm_set_partition_power_mode
                0x000000001fff3dd8       0x60 build_mx8qx_b0/svc/pm/svc.o
                0x000000001fff3dd8                pm_set_partition_power_mode
 .text.pm_set_resource_power_mode
                0x000000001fff3e38       0xa4 build_mx8qx_b0/svc/pm/svc.o
                0x000000001fff3e38                pm_set_resource_power_mode
 .text.pm_set_resource_power_mode_all
                0x000000001fff3edc       0x94 build_mx8qx_b0/svc/pm/svc.o
                0x000000001fff3edc                pm_set_resource_power_mode_all
 .text.pm_set_rsrc_power_mode
                0x000000001fff3f70       0x28 build_mx8qx_b0/svc/pm/svc.o
                0x000000001fff3f70                pm_set_rsrc_power_mode
 .text.pm_force_resource_power_mode
                0x000000001fff3f98       0x34 build_mx8qx_b0/svc/pm/svc.o
                0x000000001fff3f98                pm_force_resource_power_mode
 .text.pm_get_resource_power_mode
                0x000000001fff3fcc       0x3c build_mx8qx_b0/svc/pm/svc.o
                0x000000001fff3fcc                pm_get_resource_power_mode
 .text.pm_get_rsrc_power_mode
                0x000000001fff4008       0x20 build_mx8qx_b0/svc/pm/svc.o
                0x000000001fff4008                pm_get_rsrc_power_mode
 .text.pm_req_low_power_mode
                0x000000001fff4028       0x46 build_mx8qx_b0/svc/pm/svc.o
                0x000000001fff4028                pm_req_low_power_mode
 .text.pm_req_cpu_low_power_mode
                0x000000001fff406e       0x4e build_mx8qx_b0/svc/pm/svc.o
                0x000000001fff406e                pm_req_cpu_low_power_mode
 .text.pm_set_cpu_resume_addr
                0x000000001fff40bc       0x60 build_mx8qx_b0/svc/pm/svc.o
                0x000000001fff40bc                pm_set_cpu_resume_addr
 .text.pm_set_cpu_resume
                0x000000001fff411c       0x5c build_mx8qx_b0/svc/pm/svc.o
                0x000000001fff411c                pm_set_cpu_resume
 .text.pm_req_sys_if_power_mode
                0x000000001fff4178       0x60 build_mx8qx_b0/svc/pm/svc.o
                0x000000001fff4178                pm_req_sys_if_power_mode
 .text.pm_set_clock_rate
                0x000000001fff41d8       0x54 build_mx8qx_b0/svc/pm/svc.o
                0x000000001fff41d8                pm_set_clock_rate
 .text.pm_get_clock_rate
                0x000000001fff422c       0x3a build_mx8qx_b0/svc/pm/svc.o
                0x000000001fff422c                pm_get_clock_rate
 .text.pm_clock_enable
                0x000000001fff4266       0xf4 build_mx8qx_b0/svc/pm/svc.o
                0x000000001fff4266                pm_clock_enable
 .text.pm_force_clock_enable
                0x000000001fff435a       0x2c build_mx8qx_b0/svc/pm/svc.o
                0x000000001fff435a                pm_force_clock_enable
 .text.pm_set_clock_parent
                0x000000001fff4386       0x4a build_mx8qx_b0/svc/pm/svc.o
                0x000000001fff4386                pm_set_clock_parent
 .text.pm_get_clock_parent
                0x000000001fff43d0       0x3a build_mx8qx_b0/svc/pm/svc.o
                0x000000001fff43d0                pm_get_clock_parent
 *fill*         0x000000001fff440a        0x2 
 .text.pm_boot  0x000000001fff440c      0x138 build_mx8qx_b0/svc/pm/svc.o
                0x000000001fff440c                pm_boot
 .text.pm_reset_reason
                0x000000001fff4544       0x2c build_mx8qx_b0/svc/pm/svc.o
                0x000000001fff4544                pm_reset_reason
 .text.pm_cpu_start
                0x000000001fff4570       0x76 build_mx8qx_b0/svc/pm/svc.o
                0x000000001fff4570                pm_cpu_start
 .text.pm_reset
                0x000000001fff45e6       0x2a build_mx8qx_b0/svc/pm/svc.o
                0x000000001fff45e6                pm_reset
 .text.pm_reboot_part
                0x000000001fff4610      0x148 build_mx8qx_b0/svc/pm/svc.o
                0x000000001fff4610                pm_reboot_part
 .text.pm_reboot
                0x000000001fff4758       0x18 build_mx8qx_b0/svc/pm/svc.o
                0x000000001fff4758                pm_reboot
 .text.pm_reboot_partition
                0x000000001fff4770       0x3a build_mx8qx_b0/svc/pm/svc.o
                0x000000001fff4770                pm_reboot_partition
 *fill*         0x000000001fff47aa        0x2 
 .text.pm_set_booted
                0x000000001fff47ac       0x14 build_mx8qx_b0/svc/pm/svc.o
                0x000000001fff47ac                pm_set_booted
 .text.clear_perms
                0x000000001fff47c0       0x10 build_mx8qx_b0/svc/rm/svc.o
 .text.set_perms
                0x000000001fff47d0       0x1c build_mx8qx_b0/svc/rm/svc.o
 .text.update_rdc_memreg
                0x000000001fff47ec      0x140 build_mx8qx_b0/svc/rm/svc.o
 .text.rm_init  0x000000001fff492c      0x1b0 build_mx8qx_b0/svc/rm/svc.o
                0x000000001fff492c                rm_init
 .text.rm_reserve_static_pt
                0x000000001fff4adc        0xc build_mx8qx_b0/svc/rm/svc.o
                0x000000001fff4adc                rm_reserve_static_pt
 .text.rm_reserve_static_did
                0x000000001fff4ae8        0xc build_mx8qx_b0/svc/rm/svc.o
                0x000000001fff4ae8                rm_reserve_static_did
 .text.rm_partition_alloc
                0x000000001fff4af4      0x14c build_mx8qx_b0/svc/rm/svc.o
                0x000000001fff4af4                rm_partition_alloc
 .text.rm_set_confidential
                0x000000001fff4c40       0xb0 build_mx8qx_b0/svc/rm/svc.o
                0x000000001fff4c40                rm_set_confidential
 .text.rm_get_partition
                0x000000001fff4cf0        0xc build_mx8qx_b0/svc/rm/svc.o
                0x000000001fff4cf0                rm_get_partition
 .text.rm_is_partition_used
                0x000000001fff4cfc       0x10 build_mx8qx_b0/svc/rm/svc.o
                0x000000001fff4cfc                rm_is_partition_used
 .text.rm_is_partition_isolated
                0x000000001fff4d0c       0x10 build_mx8qx_b0/svc/rm/svc.o
                0x000000001fff4d0c                rm_is_partition_isolated
 .text.rm_get_partition_parent
                0x000000001fff4d1c       0x14 build_mx8qx_b0/svc/rm/svc.o
                0x000000001fff4d1c                rm_get_partition_parent
 .text.rm_get_did
                0x000000001fff4d30       0x14 build_mx8qx_b0/svc/rm/svc.o
                0x000000001fff4d30                rm_get_did
 .text.rm_partition_static
                0x000000001fff4d44       0x70 build_mx8qx_b0/svc/rm/svc.o
                0x000000001fff4d44                rm_partition_static
 .text.rm_partition_lock
                0x000000001fff4db4       0x30 build_mx8qx_b0/svc/rm/svc.o
                0x000000001fff4db4                rm_partition_lock
 .text.rm_is_parent
                0x000000001fff4de4       0x24 build_mx8qx_b0/svc/rm/svc.o
                0x000000001fff4de4                rm_is_parent
 .text.rm_check_ancestor
                0x000000001fff4e08       0x30 build_mx8qx_b0/svc/rm/svc.o
                0x000000001fff4e08                rm_check_ancestor
 .text.rm_get_ridx_ss_info
                0x000000001fff4e38       0x1c build_mx8qx_b0/svc/rm/svc.o
                0x000000001fff4e38                rm_get_ridx_ss_info
 .text.rm_check_map_ridx
                0x000000001fff4e54       0x34 build_mx8qx_b0/svc/rm/svc.o
                0x000000001fff4e54                rm_check_map_ridx
 .text.rm_set_resource_movable
                0x000000001fff4e88       0xa0 build_mx8qx_b0/svc/rm/svc.o
                0x000000001fff4e88                rm_set_resource_movable
 .text.rm_set_subsys_rsrc_movable
                0x000000001fff4f28       0x7c build_mx8qx_b0/svc/rm/svc.o
                0x000000001fff4f28                rm_set_subsys_rsrc_movable
 .text.rm_is_resource_avail
                0x000000001fff4fa4       0x14 build_mx8qx_b0/svc/rm/svc.o
                0x000000001fff4fa4                rm_is_resource_avail
 .text.rm_is_ridx_avail
                0x000000001fff4fb8       0x24 build_mx8qx_b0/svc/rm/svc.o
                0x000000001fff4fb8                rm_is_ridx_avail
 .text.rm_is_ridx_owned
                0x000000001fff4fdc       0x34 build_mx8qx_b0/svc/rm/svc.o
                0x000000001fff4fdc                rm_is_ridx_owned
 .text.rm_is_resource_owned
                0x000000001fff5010       0x2e build_mx8qx_b0/svc/rm/svc.o
                0x000000001fff5010                rm_is_resource_owned
 *fill*         0x000000001fff503e        0x2 
 .text.rm_is_ridx_access_allowed
                0x000000001fff5040       0x4c build_mx8qx_b0/svc/rm/svc.o
                0x000000001fff5040                rm_is_ridx_access_allowed
 .text.rm_is_resource_access_allowed
                0x000000001fff508c       0x2e build_mx8qx_b0/svc/rm/svc.o
                0x000000001fff508c                rm_is_resource_access_allowed
 *fill*         0x000000001fff50ba        0x2 
 .text.rm_get_ridx_owner
                0x000000001fff50bc       0x20 build_mx8qx_b0/svc/rm/svc.o
                0x000000001fff50bc                rm_get_ridx_owner
 .text.rm_is_ridx_master
                0x000000001fff50dc       0x48 build_mx8qx_b0/svc/rm/svc.o
                0x000000001fff50dc                rm_is_ridx_master
 .text.rm_is_resource_master
                0x000000001fff5124       0x3a build_mx8qx_b0/svc/rm/svc.o
                0x000000001fff5124                rm_is_resource_master
 *fill*         0x000000001fff515e        0x2 
 .text.rm_is_ridx_peripheral
                0x000000001fff5160       0x48 build_mx8qx_b0/svc/rm/svc.o
                0x000000001fff5160                rm_is_ridx_peripheral
 .text.update_rdc_resource
                0x000000001fff51a8      0x10c build_mx8qx_b0/svc/rm/svc.o
 .text.rm_partition_free
                0x000000001fff52b4      0x1e0 build_mx8qx_b0/svc/rm/svc.o
                0x000000001fff52b4                rm_partition_free
 .text.rm_set_parent
                0x000000001fff5494       0xe8 build_mx8qx_b0/svc/rm/svc.o
                0x000000001fff5494                rm_set_parent
 .text.rm_move_all
                0x000000001fff557c      0x198 build_mx8qx_b0/svc/rm/svc.o
                0x000000001fff557c                rm_move_all
 .text.rm_assign_resource
                0x000000001fff5714      0x1e0 build_mx8qx_b0/svc/rm/svc.o
                0x000000001fff5714                rm_assign_resource
 .text.rm_set_master_attributes
                0x000000001fff58f4      0x138 build_mx8qx_b0/svc/rm/svc.o
                0x000000001fff58f4                rm_set_master_attributes
 .text.rm_set_master_sid
                0x000000001fff5a2c      0x108 build_mx8qx_b0/svc/rm/svc.o
                0x000000001fff5a2c                rm_set_master_sid
 .text.rm_update_master
                0x000000001fff5b34        0xe build_mx8qx_b0/svc/rm/svc.o
                0x000000001fff5b34                rm_update_master
 .text.rm_update_peripheral
                0x000000001fff5b42        0xe build_mx8qx_b0/svc/rm/svc.o
                0x000000001fff5b42                rm_update_peripheral
 .text.rm_update_resource
                0x000000001fff5b50       0x26 build_mx8qx_b0/svc/rm/svc.o
                0x000000001fff5b50                rm_update_resource
 *fill*         0x000000001fff5b76        0x2 
 .text.rm_set_peripheral_permissions
                0x000000001fff5b78      0x154 build_mx8qx_b0/svc/rm/svc.o
                0x000000001fff5b78                rm_set_peripheral_permissions
 .text.rm_is_resource_peripheral
                0x000000001fff5ccc       0x3a build_mx8qx_b0/svc/rm/svc.o
                0x000000001fff5ccc                rm_is_resource_peripheral
 *fill*         0x000000001fff5d06        0x2 
 .text.rm_get_resource_info
                0x000000001fff5d08       0x58 build_mx8qx_b0/svc/rm/svc.o
                0x000000001fff5d08                rm_get_resource_info
 .text.rm_ridx_block
                0x000000001fff5d60       0x1c build_mx8qx_b0/svc/rm/svc.o
                0x000000001fff5d60                rm_ridx_block
 .text.rm_memreg_alloc
                0x000000001fff5d7c      0x204 build_mx8qx_b0/svc/rm/svc.o
                0x000000001fff5d7c                rm_memreg_alloc
 .text.rm_memreg_split
                0x000000001fff5f80       0xf4 build_mx8qx_b0/svc/rm/svc.o
                0x000000001fff5f80                rm_memreg_split
 .text.rm_memreg_free
                0x000000001fff6074       0xcc build_mx8qx_b0/svc/rm/svc.o
                0x000000001fff6074                rm_memreg_free
 .text.rm_assign_memreg
                0x000000001fff6140      0x118 build_mx8qx_b0/svc/rm/svc.o
                0x000000001fff6140                rm_assign_memreg
 .text.rm_set_memreg_permissions
                0x000000001fff6258      0x14c build_mx8qx_b0/svc/rm/svc.o
                0x000000001fff6258                rm_set_memreg_permissions
 .text.rm_is_memreg_owned
                0x000000001fff63a4       0x30 build_mx8qx_b0/svc/rm/svc.o
                0x000000001fff63a4                rm_is_memreg_owned
 .text.rm_find_memreg
                0x000000001fff63d4       0x78 build_mx8qx_b0/svc/rm/svc.o
                0x000000001fff63d4                rm_find_memreg
 .text.rm_get_memreg_info
                0x000000001fff644c       0x3c build_mx8qx_b0/svc/rm/svc.o
                0x000000001fff644c                rm_get_memreg_info
 .text.rm_assign_pad
                0x000000001fff6488       0xc4 build_mx8qx_b0/svc/rm/svc.o
                0x000000001fff6488                rm_assign_pad
 .text.rm_set_pad_movable
                0x000000001fff654c       0x8c build_mx8qx_b0/svc/rm/svc.o
                0x000000001fff654c                rm_set_pad_movable
 .text.rm_is_pad_owned
                0x000000001fff65d8       0x20 build_mx8qx_b0/svc/rm/svc.o
                0x000000001fff65d8                rm_is_pad_owned
 .text.rm_init_subsys
                0x000000001fff65f8       0xc4 build_mx8qx_b0/svc/rm/svc.o
                0x000000001fff65f8                rm_init_subsys
 .text.rm_enable_blocking
                0x000000001fff66bc       0x10 build_mx8qx_b0/svc/rm/svc.o
                0x000000001fff66bc                rm_enable_blocking
 .text.rm_dump_partition
                0x000000001fff66cc       0xd0 build_mx8qx_b0/svc/rm/svc.o
                0x000000001fff66cc                rm_dump_partition
 .text.rm_dump_resources
                0x000000001fff679c       0x7c build_mx8qx_b0/svc/rm/svc.o
                0x000000001fff679c                rm_dump_resources
 .text.rm_dump_memregs
                0x000000001fff6818       0x94 build_mx8qx_b0/svc/rm/svc.o
                0x000000001fff6818                rm_dump_memregs
 .text.rm_dump_pads
                0x000000001fff68ac       0x54 build_mx8qx_b0/svc/rm/svc.o
                0x000000001fff68ac                rm_dump_pads
 .text.rm_dump  0x000000001fff6900       0x64 build_mx8qx_b0/svc/rm/svc.o
                0x000000001fff6900                rm_dump
 .text.unlikely.epoc2secs
                0x000000001fff6964       0xdc build_mx8qx_b0/svc/timer/svc.o
 .text.update_alarm
                0x000000001fff6a40       0x24 build_mx8qx_b0/svc/timer/svc.o
 .text.notify_wdog_children
                0x000000001fff6a64       0x30 build_mx8qx_b0/svc/timer/svc.o
 .text.update_sysctr
                0x000000001fff6a94       0x44 build_mx8qx_b0/svc/timer/svc.o
 .text.timer_init_part
                0x000000001fff6ad8       0x6c build_mx8qx_b0/svc/timer/svc.o
                0x000000001fff6ad8                timer_init_part
 .text.timer_init
                0x000000001fff6b44       0x18 build_mx8qx_b0/svc/timer/svc.o
                0x000000001fff6b44                timer_init
 .text.timer_set_wdog_timeout
                0x000000001fff6b5c       0x28 build_mx8qx_b0/svc/timer/svc.o
                0x000000001fff6b5c                timer_set_wdog_timeout
 .text.timer_set_wdog_pre_timeout
                0x000000001fff6b84       0x20 build_mx8qx_b0/svc/timer/svc.o
                0x000000001fff6b84                timer_set_wdog_pre_timeout
 .text.timer_start_wdog
                0x000000001fff6ba4       0x3c build_mx8qx_b0/svc/timer/svc.o
                0x000000001fff6ba4                timer_start_wdog
 .text.timer_stop_wdog
                0x000000001fff6be0       0x30 build_mx8qx_b0/svc/timer/svc.o
                0x000000001fff6be0                timer_stop_wdog
 .text.timer_halt_wdog
                0x000000001fff6c10       0x2c build_mx8qx_b0/svc/timer/svc.o
                0x000000001fff6c10                timer_halt_wdog
 .text.timer_ping_wdog
                0x000000001fff6c3c       0x1c build_mx8qx_b0/svc/timer/svc.o
                0x000000001fff6c3c                timer_ping_wdog
 .text.timer_get_wdog_status
                0x000000001fff6c58       0x3c build_mx8qx_b0/svc/timer/svc.o
                0x000000001fff6c58                timer_get_wdog_status
 .text.timer_pt_get_wdog_status
                0x000000001fff6c94       0x4c build_mx8qx_b0/svc/timer/svc.o
                0x000000001fff6c94                timer_pt_get_wdog_status
 .text.timer_set_wdog_action
                0x000000001fff6ce0       0x4c build_mx8qx_b0/svc/timer/svc.o
                0x000000001fff6ce0                timer_set_wdog_action
 .text.timer_get_rtc_time
                0x000000001fff6d2c      0x170 build_mx8qx_b0/svc/timer/svc.o
                0x000000001fff6d2c                timer_get_rtc_time
 .text.timer_set_rtc_alarm
                0x000000001fff6e9c       0x64 build_mx8qx_b0/svc/timer/svc.o
                0x000000001fff6e9c                timer_set_rtc_alarm
 .text.timer_set_rtc_periodic_alarm
                0x000000001fff6f00       0x38 build_mx8qx_b0/svc/timer/svc.o
                0x000000001fff6f00                timer_set_rtc_periodic_alarm
 .text.timer_cancel_rtc_alarm
                0x000000001fff6f38       0x28 build_mx8qx_b0/svc/timer/svc.o
                0x000000001fff6f38                timer_cancel_rtc_alarm
 .text.timer_get_rtc_sec1970
                0x000000001fff6f60        0x6 build_mx8qx_b0/svc/timer/svc.o
                0x000000001fff6f60                timer_get_rtc_sec1970
 .text.timer_set_rtc_calb
                0x000000001fff6f66       0x34 build_mx8qx_b0/svc/timer/svc.o
                0x000000001fff6f66                timer_set_rtc_calb
 *fill*         0x000000001fff6f9a        0x2 
 .text.timer_tick
                0x000000001fff6f9c       0xe8 build_mx8qx_b0/svc/timer/svc.o
                0x000000001fff6f9c                timer_tick
 .text.SNVS_Functional_IRQHandler
                0x000000001fff7084       0x50 build_mx8qx_b0/svc/timer/svc.o
                0x000000001fff7084                SNVS_Functional_IRQHandler
 .text.timer_set_rtc_time
                0x000000001fff70d4       0xa4 build_mx8qx_b0/svc/timer/svc.o
                0x000000001fff70d4                timer_set_rtc_time
 .text.timer_set_sysctr_alarm
                0x000000001fff7178       0x2c build_mx8qx_b0/svc/timer/svc.o
                0x000000001fff7178                timer_set_sysctr_alarm
 .text.timer_set_sysctr_periodic_alarm
                0x000000001fff71a4       0x3c build_mx8qx_b0/svc/timer/svc.o
                0x000000001fff71a4                timer_set_sysctr_periodic_alarm
 .text.timer_cancel_sysctr_alarm
                0x000000001fff71e0       0x34 build_mx8qx_b0/svc/timer/svc.o
                0x000000001fff71e0                timer_cancel_sysctr_alarm
 .text.SYSCTR_CMP1_IRQHandler
                0x000000001fff7214       0x64 build_mx8qx_b0/svc/timer/svc.o
                0x000000001fff7214                SYSCTR_CMP1_IRQHandler
 .text.irq_dispatch
                0x000000001fff7278       0x6c build_mx8qx_b0/svc/irq/rpc_srv.o
                0x000000001fff7278                irq_dispatch
 .text.misc_dispatch
                0x000000001fff72e4      0x2fc build_mx8qx_b0/svc/misc/rpc_srv.o
                0x000000001fff72e4                misc_dispatch
 .text.pad_dispatch
                0x000000001fff75e0      0x2b0 build_mx8qx_b0/svc/pad/rpc_srv.o
                0x000000001fff75e0                pad_dispatch
 .text.pm_dispatch
                0x000000001fff7890      0x1c8 build_mx8qx_b0/svc/pm/rpc_srv.o
                0x000000001fff7890                pm_dispatch
 .text.rm_dispatch
                0x000000001fff7a58      0x26c build_mx8qx_b0/svc/rm/rpc_srv.o
                0x000000001fff7a58                rm_dispatch
 .text.timer_dispatch
                0x000000001fff7cc4      0x1c8 build_mx8qx_b0/svc/timer/rpc_srv.o
                0x000000001fff7cc4                timer_dispatch
 .text.__assert_func
                0x000000001fff7e8c       0x3c /home/jalcim/gcc_toolchain/gcc-arm-none-eabi-7-2018-q2-update/bin/../lib/gcc/arm-none-eabi/7.3.1/../../../../arm-none-eabi/lib/thumb/v7e-m/fpv4-sp/softfp/libc_nano.a(lib_a-assert.o)
                0x000000001fff7e8c                __assert_func
 .text.__errno  0x000000001fff7ec8        0xc /home/jalcim/gcc_toolchain/gcc-arm-none-eabi-7-2018-q2-update/bin/../lib/gcc/arm-none-eabi/7.3.1/../../../../arm-none-eabi/lib/thumb/v7e-m/fpv4-sp/softfp/libc_nano.a(lib_a-errno.o)
                0x000000001fff7ec8                __errno
 .text.exit     0x000000001fff7ed4       0x28 /home/jalcim/gcc_toolchain/gcc-arm-none-eabi-7-2018-q2-update/bin/../lib/gcc/arm-none-eabi/7.3.1/../../../../arm-none-eabi/lib/thumb/v7e-m/fpv4-sp/softfp/libc_nano.a(lib_a-exit.o)
                0x000000001fff7ed4                exit
 .text._fgets_r
                0x000000001fff7efc       0xc0 /home/jalcim/gcc_toolchain/gcc-arm-none-eabi-7-2018-q2-update/bin/../lib/gcc/arm-none-eabi/7.3.1/../../../../arm-none-eabi/lib/thumb/v7e-m/fpv4-sp/softfp/libc_nano.a(lib_a-fgets.o)
                0x000000001fff7efc                _fgets_r
 .text.fgets    0x000000001fff7fbc       0x14 /home/jalcim/gcc_toolchain/gcc-arm-none-eabi-7-2018-q2-update/bin/../lib/gcc/arm-none-eabi/7.3.1/../../../../arm-none-eabi/lib/thumb/v7e-m/fpv4-sp/softfp/libc_nano.a(lib_a-fgets.o)
                0x000000001fff7fbc                fgets
 .text.std      0x000000001fff7fd0       0x48 /home/jalcim/gcc_toolchain/gcc-arm-none-eabi-7-2018-q2-update/bin/../lib/gcc/arm-none-eabi/7.3.1/../../../../arm-none-eabi/lib/thumb/v7e-m/fpv4-sp/softfp/libc_nano.a(lib_a-findfp.o)
 .text._cleanup_r
                0x000000001fff8018        0xc /home/jalcim/gcc_toolchain/gcc-arm-none-eabi-7-2018-q2-update/bin/../lib/gcc/arm-none-eabi/7.3.1/../../../../arm-none-eabi/lib/thumb/v7e-m/fpv4-sp/softfp/libc_nano.a(lib_a-findfp.o)
                0x000000001fff8018                _cleanup_r
 .text.__sfmoreglue
                0x000000001fff8024       0x2c /home/jalcim/gcc_toolchain/gcc-arm-none-eabi-7-2018-q2-update/bin/../lib/gcc/arm-none-eabi/7.3.1/../../../../arm-none-eabi/lib/thumb/v7e-m/fpv4-sp/softfp/libc_nano.a(lib_a-findfp.o)
                0x000000001fff8024                __sfmoreglue
 .text.__sinit  0x000000001fff8050       0x60 /home/jalcim/gcc_toolchain/gcc-arm-none-eabi-7-2018-q2-update/bin/../lib/gcc/arm-none-eabi/7.3.1/../../../../arm-none-eabi/lib/thumb/v7e-m/fpv4-sp/softfp/libc_nano.a(lib_a-findfp.o)
                0x000000001fff8050                __sinit
 .text.__sfp    0x000000001fff80b0       0x78 /home/jalcim/gcc_toolchain/gcc-arm-none-eabi-7-2018-q2-update/bin/../lib/gcc/arm-none-eabi/7.3.1/../../../../arm-none-eabi/lib/thumb/v7e-m/fpv4-sp/softfp/libc_nano.a(lib_a-findfp.o)
                0x000000001fff80b0                __sfp
 .text.fprintf  0x000000001fff8128       0x24 /home/jalcim/gcc_toolchain/gcc-arm-none-eabi-7-2018-q2-update/bin/../lib/gcc/arm-none-eabi/7.3.1/../../../../arm-none-eabi/lib/thumb/v7e-m/fpv4-sp/softfp/libc_nano.a(lib_a-fprintf.o)
                0x000000001fff8128                fprintf
                0x000000001fff8128                fiprintf
 .text._fwalk   0x000000001fff814c       0x38 /home/jalcim/gcc_toolchain/gcc-arm-none-eabi-7-2018-q2-update/bin/../lib/gcc/arm-none-eabi/7.3.1/../../../../arm-none-eabi/lib/thumb/v7e-m/fpv4-sp/softfp/libc_nano.a(lib_a-fwalk.o)
                0x000000001fff814c                _fwalk
 .text._fwalk_reent
                0x000000001fff8184       0x3c /home/jalcim/gcc_toolchain/gcc-arm-none-eabi-7-2018-q2-update/bin/../lib/gcc/arm-none-eabi/7.3.1/../../../../arm-none-eabi/lib/thumb/v7e-m/fpv4-sp/softfp/libc_nano.a(lib_a-fwalk.o)
                0x000000001fff8184                _fwalk_reent
 .text.__libc_init_array
                0x000000001fff81c0       0x48 /home/jalcim/gcc_toolchain/gcc-arm-none-eabi-7-2018-q2-update/bin/../lib/gcc/arm-none-eabi/7.3.1/../../../../arm-none-eabi/lib/thumb/v7e-m/fpv4-sp/softfp/libc_nano.a(lib_a-init.o)
                0x000000001fff81c0                __libc_init_array
 .text.memcpy   0x000000001fff8208       0x16 /home/jalcim/gcc_toolchain/gcc-arm-none-eabi-7-2018-q2-update/bin/../lib/gcc/arm-none-eabi/7.3.1/../../../../arm-none-eabi/lib/thumb/v7e-m/fpv4-sp/softfp/libc_nano.a(lib_a-memcpy-stub.o)
                0x000000001fff8208                memcpy
 .text.memset   0x000000001fff821e       0x10 /home/jalcim/gcc_toolchain/gcc-arm-none-eabi-7-2018-q2-update/bin/../lib/gcc/arm-none-eabi/7.3.1/../../../../arm-none-eabi/lib/thumb/v7e-m/fpv4-sp/softfp/libc_nano.a(lib_a-memset.o)
                0x000000001fff821e                memset
 *fill*         0x000000001fff822e        0x2 
 .text._malloc_r
                0x000000001fff8230       0xb4 /home/jalcim/gcc_toolchain/gcc-arm-none-eabi-7-2018-q2-update/bin/../lib/gcc/arm-none-eabi/7.3.1/../../../../arm-none-eabi/lib/thumb/v7e-m/fpv4-sp/softfp/libc_nano.a(lib_a-nano-mallocr.o)
                0x000000001fff8230                _malloc_r
 .text.__sfputc_r
                0x000000001fff82e4       0x2e /home/jalcim/gcc_toolchain/gcc-arm-none-eabi-7-2018-q2-update/bin/../lib/gcc/arm-none-eabi/7.3.1/../../../../arm-none-eabi/lib/thumb/v7e-m/fpv4-sp/softfp/libc_nano.a(lib_a-nano-vfprintf.o)
 .text.__sfputs_r
                0x000000001fff8312       0x24 /home/jalcim/gcc_toolchain/gcc-arm-none-eabi-7-2018-q2-update/bin/../lib/gcc/arm-none-eabi/7.3.1/../../../../arm-none-eabi/lib/thumb/v7e-m/fpv4-sp/softfp/libc_nano.a(lib_a-nano-vfprintf.o)
                0x000000001fff8312                __sfputs_r
 *fill*         0x000000001fff8336        0x2 
 .text._vfprintf_r
                0x000000001fff8338      0x22c /home/jalcim/gcc_toolchain/gcc-arm-none-eabi-7-2018-q2-update/bin/../lib/gcc/arm-none-eabi/7.3.1/../../../../arm-none-eabi/lib/thumb/v7e-m/fpv4-sp/softfp/libc_nano.a(lib_a-nano-vfprintf.o)
                0x000000001fff8338                _vfiprintf_r
                0x000000001fff8338                _vfprintf_r
 .text.vfprintf
                0x000000001fff8564       0x14 /home/jalcim/gcc_toolchain/gcc-arm-none-eabi-7-2018-q2-update/bin/../lib/gcc/arm-none-eabi/7.3.1/../../../../arm-none-eabi/lib/thumb/v7e-m/fpv4-sp/softfp/libc_nano.a(lib_a-nano-vfprintf.o)
                0x000000001fff8564                vfiprintf
                0x000000001fff8564                vfprintf
 .text._printf_common
                0x000000001fff8578       0xea /home/jalcim/gcc_toolchain/gcc-arm-none-eabi-7-2018-q2-update/bin/../lib/gcc/arm-none-eabi/7.3.1/../../../../arm-none-eabi/lib/thumb/v7e-m/fpv4-sp/softfp/libc_nano.a(lib_a-nano-vfprintf_i.o)
                0x000000001fff8578                _printf_common
 *fill*         0x000000001fff8662        0x2 
 .text._printf_i
                0x000000001fff8664      0x224 /home/jalcim/gcc_toolchain/gcc-arm-none-eabi-7-2018-q2-update/bin/../lib/gcc/arm-none-eabi/7.3.1/../../../../arm-none-eabi/lib/thumb/v7e-m/fpv4-sp/softfp/libc_nano.a(lib_a-nano-vfprintf_i.o)
                0x000000001fff8664                _printf_i
 .text.lflush   0x000000001fff8888       0x12 /home/jalcim/gcc_toolchain/gcc-arm-none-eabi-7-2018-q2-update/bin/../lib/gcc/arm-none-eabi/7.3.1/../../../../arm-none-eabi/lib/thumb/v7e-m/fpv4-sp/softfp/libc_nano.a(lib_a-refill.o)
 *fill*         0x000000001fff889a        0x2 
 .text.__srefill_r
                0x000000001fff889c      0x118 /home/jalcim/gcc_toolchain/gcc-arm-none-eabi-7-2018-q2-update/bin/../lib/gcc/arm-none-eabi/7.3.1/../../../../arm-none-eabi/lib/thumb/v7e-m/fpv4-sp/softfp/libc_nano.a(lib_a-refill.o)
                0x000000001fff889c                __srefill_r
 .text._sbrk_r  0x000000001fff89b4       0x20 /home/jalcim/gcc_toolchain/gcc-arm-none-eabi-7-2018-q2-update/bin/../lib/gcc/arm-none-eabi/7.3.1/../../../../arm-none-eabi/lib/thumb/v7e-m/fpv4-sp/softfp/libc_nano.a(lib_a-sbrkr.o)
                0x000000001fff89b4                _sbrk_r
 .text.setvbuf  0x000000001fff89d4      0x15c /home/jalcim/gcc_toolchain/gcc-arm-none-eabi-7-2018-q2-update/bin/../lib/gcc/arm-none-eabi/7.3.1/../../../../arm-none-eabi/lib/thumb/v7e-m/fpv4-sp/softfp/libc_nano.a(lib_a-setvbuf.o)
                0x000000001fff89d4                setvbuf
 .text.__sread  0x000000001fff8b30       0x22 /home/jalcim/gcc_toolchain/gcc-arm-none-eabi-7-2018-q2-update/bin/../lib/gcc/arm-none-eabi/7.3.1/../../../../arm-none-eabi/lib/thumb/v7e-m/fpv4-sp/softfp/libc_nano.a(lib_a-stdio.o)
                0x000000001fff8b30                __sread
 .text.__swrite
                0x000000001fff8b52       0x38 /home/jalcim/gcc_toolchain/gcc-arm-none-eabi-7-2018-q2-update/bin/../lib/gcc/arm-none-eabi/7.3.1/../../../../arm-none-eabi/lib/thumb/v7e-m/fpv4-sp/softfp/libc_nano.a(lib_a-stdio.o)
                0x000000001fff8b52                __swrite
 .text.__sseek  0x000000001fff8b8a       0x24 /home/jalcim/gcc_toolchain/gcc-arm-none-eabi-7-2018-q2-update/bin/../lib/gcc/arm-none-eabi/7.3.1/../../../../arm-none-eabi/lib/thumb/v7e-m/fpv4-sp/softfp/libc_nano.a(lib_a-stdio.o)
                0x000000001fff8b8a                __sseek
 .text.__sclose
                0x000000001fff8bae        0x8 /home/jalcim/gcc_toolchain/gcc-arm-none-eabi-7-2018-q2-update/bin/../lib/gcc/arm-none-eabi/7.3.1/../../../../arm-none-eabi/lib/thumb/v7e-m/fpv4-sp/softfp/libc_nano.a(lib_a-stdio.o)
                0x000000001fff8bae                __sclose
 .text.strcasecmp
                0x000000001fff8bb6       0x3c /home/jalcim/gcc_toolchain/gcc-arm-none-eabi-7-2018-q2-update/bin/../lib/gcc/arm-none-eabi/7.3.1/../../../../arm-none-eabi/lib/thumb/v7e-m/fpv4-sp/softfp/libc_nano.a(lib_a-strcasecmp.o)
                0x000000001fff8bb6                strcasecmp
 .text.strncasecmp
                0x000000001fff8bf2       0x4a /home/jalcim/gcc_toolchain/gcc-arm-none-eabi-7-2018-q2-update/bin/../lib/gcc/arm-none-eabi/7.3.1/../../../../arm-none-eabi/lib/thumb/v7e-m/fpv4-sp/softfp/libc_nano.a(lib_a-strncasecmp.o)
                0x000000001fff8bf2                strncasecmp
 .text._strtoul_l.isra.0
                0x000000001fff8c3c       0xf4 /home/jalcim/gcc_toolchain/gcc-arm-none-eabi-7-2018-q2-update/bin/../lib/gcc/arm-none-eabi/7.3.1/../../../../arm-none-eabi/lib/thumb/v7e-m/fpv4-sp/softfp/libc_nano.a(lib_a-strtoul.o)
 .text.strtoul  0x000000001fff8d30       0x2c /home/jalcim/gcc_toolchain/gcc-arm-none-eabi-7-2018-q2-update/bin/../lib/gcc/arm-none-eabi/7.3.1/../../../../arm-none-eabi/lib/thumb/v7e-m/fpv4-sp/softfp/libc_nano.a(lib_a-strtoul.o)
                0x000000001fff8d30                strtoul
 .text._strtoull_l.isra.0
                0x000000001fff8d5c      0x16a /home/jalcim/gcc_toolchain/gcc-arm-none-eabi-7-2018-q2-update/bin/../lib/gcc/arm-none-eabi/7.3.1/../../../../arm-none-eabi/lib/thumb/v7e-m/fpv4-sp/softfp/libc_nano.a(lib_a-strtoull.o)
 *fill*         0x000000001fff8ec6        0x2 
 .text.strtoull
                0x000000001fff8ec8       0x2c /home/jalcim/gcc_toolchain/gcc-arm-none-eabi-7-2018-q2-update/bin/../lib/gcc/arm-none-eabi/7.3.1/../../../../arm-none-eabi/lib/thumb/v7e-m/fpv4-sp/softfp/libc_nano.a(lib_a-strtoull.o)
                0x000000001fff8ec8                strtoull
 .text.__swbuf_r
                0x000000001fff8ef4       0xa4 /home/jalcim/gcc_toolchain/gcc-arm-none-eabi-7-2018-q2-update/bin/../lib/gcc/arm-none-eabi/7.3.1/../../../../arm-none-eabi/lib/thumb/v7e-m/fpv4-sp/softfp/libc_nano.a(lib_a-wbuf.o)
                0x000000001fff8ef4                __swbuf_r
 .text._write_r
                0x000000001fff8f98       0x24 /home/jalcim/gcc_toolchain/gcc-arm-none-eabi-7-2018-q2-update/bin/../lib/gcc/arm-none-eabi/7.3.1/../../../../arm-none-eabi/lib/thumb/v7e-m/fpv4-sp/softfp/libc_nano.a(lib_a-writer.o)
                0x000000001fff8f98                _write_r
 .text.__swsetup_r
                0x000000001fff8fbc       0xdc /home/jalcim/gcc_toolchain/gcc-arm-none-eabi-7-2018-q2-update/bin/../lib/gcc/arm-none-eabi/7.3.1/../../../../arm-none-eabi/lib/thumb/v7e-m/fpv4-sp/softfp/libc_nano.a(lib_a-wsetup.o)
                0x000000001fff8fbc                __swsetup_r
 .text.abort    0x000000001fff9098        0xe /home/jalcim/gcc_toolchain/gcc-arm-none-eabi-7-2018-q2-update/bin/../lib/gcc/arm-none-eabi/7.3.1/../../../../arm-none-eabi/lib/thumb/v7e-m/fpv4-sp/softfp/libc_nano.a(lib_a-abort.o)
                0x000000001fff9098                abort
 *fill*         0x000000001fff90a6        0x2 
 .text._close_r
                0x000000001fff90a8       0x20 /home/jalcim/gcc_toolchain/gcc-arm-none-eabi-7-2018-q2-update/bin/../lib/gcc/arm-none-eabi/7.3.1/../../../../arm-none-eabi/lib/thumb/v7e-m/fpv4-sp/softfp/libc_nano.a(lib_a-closer.o)
                0x000000001fff90a8                _close_r
 .text.__sflush_r
                0x000000001fff90c8      0x10c /home/jalcim/gcc_toolchain/gcc-arm-none-eabi-7-2018-q2-update/bin/../lib/gcc/arm-none-eabi/7.3.1/../../../../arm-none-eabi/lib/thumb/v7e-m/fpv4-sp/softfp/libc_nano.a(lib_a-fflush.o)
                0x000000001fff90c8                __sflush_r
 .text._fflush_r
                0x000000001fff91d4       0x54 /home/jalcim/gcc_toolchain/gcc-arm-none-eabi-7-2018-q2-update/bin/../lib/gcc/arm-none-eabi/7.3.1/../../../../arm-none-eabi/lib/thumb/v7e-m/fpv4-sp/softfp/libc_nano.a(lib_a-fflush.o)
                0x000000001fff91d4                _fflush_r
 .text.fflush   0x000000001fff9228       0x24 /home/jalcim/gcc_toolchain/gcc-arm-none-eabi-7-2018-q2-update/bin/../lib/gcc/arm-none-eabi/7.3.1/../../../../arm-none-eabi/lib/thumb/v7e-m/fpv4-sp/softfp/libc_nano.a(lib_a-fflush.o)
                0x000000001fff9228                fflush
 .text.__locale_ctype_ptr_l
                0x000000001fff924c        0x6 /home/jalcim/gcc_toolchain/gcc-arm-none-eabi-7-2018-q2-update/bin/../lib/gcc/arm-none-eabi/7.3.1/../../../../arm-none-eabi/lib/thumb/v7e-m/fpv4-sp/softfp/libc_nano.a(lib_a-locale.o)
                0x000000001fff924c                __locale_ctype_ptr_l
 *fill*         0x000000001fff9252        0x2 
 .text.__locale_ctype_ptr
                0x000000001fff9254       0x1c /home/jalcim/gcc_toolchain/gcc-arm-none-eabi-7-2018-q2-update/bin/../lib/gcc/arm-none-eabi/7.3.1/../../../../arm-none-eabi/lib/thumb/v7e-m/fpv4-sp/softfp/libc_nano.a(lib_a-locale.o)
                0x000000001fff9254                __locale_ctype_ptr
 .text._lseek_r
                0x000000001fff9270       0x24 /home/jalcim/gcc_toolchain/gcc-arm-none-eabi-7-2018-q2-update/bin/../lib/gcc/arm-none-eabi/7.3.1/../../../../arm-none-eabi/lib/thumb/v7e-m/fpv4-sp/softfp/libc_nano.a(lib_a-lseekr.o)
                0x000000001fff9270                _lseek_r
 .text.__swhatbuf_r
                0x000000001fff9294       0x48 /home/jalcim/gcc_toolchain/gcc-arm-none-eabi-7-2018-q2-update/bin/../lib/gcc/arm-none-eabi/7.3.1/../../../../arm-none-eabi/lib/thumb/v7e-m/fpv4-sp/softfp/libc_nano.a(lib_a-makebuf.o)
                0x000000001fff9294                __swhatbuf_r
 .text.__smakebuf_r
                0x000000001fff92dc       0x80 /home/jalcim/gcc_toolchain/gcc-arm-none-eabi-7-2018-q2-update/bin/../lib/gcc/arm-none-eabi/7.3.1/../../../../arm-none-eabi/lib/thumb/v7e-m/fpv4-sp/softfp/libc_nano.a(lib_a-makebuf.o)
                0x000000001fff92dc                __smakebuf_r
 .text.malloc   0x000000001fff935c       0x10 /home/jalcim/gcc_toolchain/gcc-arm-none-eabi-7-2018-q2-update/bin/../lib/gcc/arm-none-eabi/7.3.1/../../../../arm-none-eabi/lib/thumb/v7e-m/fpv4-sp/softfp/libc_nano.a(lib_a-malloc.o)
                0x000000001fff935c                malloc
 .text.__ascii_mbtowc
                0x000000001fff936c       0x24 /home/jalcim/gcc_toolchain/gcc-arm-none-eabi-7-2018-q2-update/bin/../lib/gcc/arm-none-eabi/7.3.1/../../../../arm-none-eabi/lib/thumb/v7e-m/fpv4-sp/softfp/libc_nano.a(lib_a-mbtowc_r.o)
                0x000000001fff936c                __ascii_mbtowc
 .text.__malloc_lock
                0x000000001fff9390        0x2 /home/jalcim/gcc_toolchain/gcc-arm-none-eabi-7-2018-q2-update/bin/../lib/gcc/arm-none-eabi/7.3.1/../../../../arm-none-eabi/lib/thumb/v7e-m/fpv4-sp/softfp/libc_nano.a(lib_a-mlock.o)
                0x000000001fff9390                __malloc_lock
 .text.__malloc_unlock
                0x000000001fff9392        0x2 /home/jalcim/gcc_toolchain/gcc-arm-none-eabi-7-2018-q2-update/bin/../lib/gcc/arm-none-eabi/7.3.1/../../../../arm-none-eabi/lib/thumb/v7e-m/fpv4-sp/softfp/libc_nano.a(lib_a-mlock.o)
                0x000000001fff9392                __malloc_unlock
 .text._free_r  0x000000001fff9394       0x9c /home/jalcim/gcc_toolchain/gcc-arm-none-eabi-7-2018-q2-update/bin/../lib/gcc/arm-none-eabi/7.3.1/../../../../arm-none-eabi/lib/thumb/v7e-m/fpv4-sp/softfp/libc_nano.a(lib_a-nano-freer.o)
                0x000000001fff9394                _free_r
 .text._read_r  0x000000001fff9430       0x24 /home/jalcim/gcc_toolchain/gcc-arm-none-eabi-7-2018-q2-update/bin/../lib/gcc/arm-none-eabi/7.3.1/../../../../arm-none-eabi/lib/thumb/v7e-m/fpv4-sp/softfp/libc_nano.a(lib_a-readr.o)
                0x000000001fff9430                _read_r
 .text._raise_r
                0x000000001fff9454       0x50 /home/jalcim/gcc_toolchain/gcc-arm-none-eabi-7-2018-q2-update/bin/../lib/gcc/arm-none-eabi/7.3.1/../../../../arm-none-eabi/lib/thumb/v7e-m/fpv4-sp/softfp/libc_nano.a(lib_a-signal.o)
                0x000000001fff9454                _raise_r
 .text.raise    0x000000001fff94a4       0x10 /home/jalcim/gcc_toolchain/gcc-arm-none-eabi-7-2018-q2-update/bin/../lib/gcc/arm-none-eabi/7.3.1/../../../../arm-none-eabi/lib/thumb/v7e-m/fpv4-sp/softfp/libc_nano.a(lib_a-signal.o)
                0x000000001fff94a4                raise
 .text._kill_r  0x000000001fff94b4       0x24 /home/jalcim/gcc_toolchain/gcc-arm-none-eabi-7-2018-q2-update/bin/../lib/gcc/arm-none-eabi/7.3.1/../../../../arm-none-eabi/lib/thumb/v7e-m/fpv4-sp/softfp/libc_nano.a(lib_a-signalr.o)
                0x000000001fff94b4                _kill_r
 .text._getpid_r
                0x000000001fff94d8        0x4 /home/jalcim/gcc_toolchain/gcc-arm-none-eabi-7-2018-q2-update/bin/../lib/gcc/arm-none-eabi/7.3.1/../../../../arm-none-eabi/lib/thumb/v7e-m/fpv4-sp/softfp/libc_nano.a(lib_a-signalr.o)
                0x000000001fff94d8                _getpid_r
 .text.__ascii_wctomb
                0x000000001fff94dc       0x1a /home/jalcim/gcc_toolchain/gcc-arm-none-eabi-7-2018-q2-update/bin/../lib/gcc/arm-none-eabi/7.3.1/../../../../arm-none-eabi/lib/thumb/v7e-m/fpv4-sp/softfp/libc_nano.a(lib_a-wctomb_r.o)
                0x000000001fff94dc                __ascii_wctomb
 *fill*         0x000000001fff94f6        0x2 
 .text._fstat_r
                0x000000001fff94f8       0x24 /home/jalcim/gcc_toolchain/gcc-arm-none-eabi-7-2018-q2-update/bin/../lib/gcc/arm-none-eabi/7.3.1/../../../../arm-none-eabi/lib/thumb/v7e-m/fpv4-sp/softfp/libc_nano.a(lib_a-fstatr.o)
                0x000000001fff94f8                _fstat_r
 .text._isatty_r
                0x000000001fff951c       0x20 /home/jalcim/gcc_toolchain/gcc-arm-none-eabi-7-2018-q2-update/bin/../lib/gcc/arm-none-eabi/7.3.1/../../../../arm-none-eabi/lib/thumb/v7e-m/fpv4-sp/softfp/libc_nano.a(lib_a-isattyr.o)
                0x000000001fff951c                _isatty_r
 *(.glue_7)
 .glue_7        0x000000001fff953c        0x0 linker stubs
 *(.glue_7t)
 .glue_7t       0x000000001fff953c        0x0 linker stubs
 *(.eh_frame)
 *(.init)
 *(.fini)
                0x000000001fff953c                . = ALIGN (0x4)

.vfp11_veneer   0x000000001fff953c        0x0
 .vfp11_veneer  0x000000001fff953c        0x0 linker stubs

.v4_bx          0x000000001fff953c        0x0
 .v4_bx         0x000000001fff953c        0x0 linker stubs

.iplt           0x000000001fff953c        0x0
 .iplt          0x000000001fff953c        0x0 build_mx8qx_b0/devices/startup.o

.ARM.extab
 *(.ARM.extab* .gnu.linkonce.armextab.*)

.ARM            0x000000001fff953c        0x8
                0x000000001fff953c                __exidx_start = .
 *(.ARM.exidx*)
 .ARM.exidx     0x000000001fff953c        0x8 /home/jalcim/gcc_toolchain/gcc-arm-none-eabi-7-2018-q2-update/bin/../lib/gcc/arm-none-eabi/7.3.1/thumb/v7e-m/fpv4-sp/softfp/libgcc.a(_udivmoddi4.o)
                0x000000001fff9544                __exidx_end = .

.ctors          0x000000001fff9544        0x0
                0x000000001fff9544                __CTOR_LIST__ = .
 *crtbegin.o(.ctors)
 *crtbegin?.o(.ctors)
 *(EXCLUDE_FILE(*crtend.o *crtend?.o) .ctors)
 *(SORT_BY_NAME(.ctors.*))
 *(.ctors)
                0x000000001fff9544                __CTOR_END__ = .

.dtors          0x000000001fff9544        0x0
                0x000000001fff9544                __DTOR_LIST__ = .
 *crtbegin.o(.dtors)
 *crtbegin?.o(.dtors)
 *(EXCLUDE_FILE(*crtend.o *crtend?.o) .dtors)
 *(SORT_BY_NAME(.dtors.*))
 *(.dtors)
                0x000000001fff9544                __DTOR_END__ = .

.preinit_array  0x000000001fff9544        0x0
                0x000000001fff9544                PROVIDE (__preinit_array_start = .)
 *(.preinit_array*)
                0x000000001fff9544                PROVIDE (__preinit_array_end = .)

.init_array     0x000000001fff9544        0x0
                0x000000001fff9544                PROVIDE (__init_array_start = .)
 *(SORT_BY_NAME(.init_array.*))
 *(.init_array*)
                0x000000001fff9544                PROVIDE (__init_array_end = .)

.rodata         0x000000001fff9548     0x8558
 *(.rodata)
 .rodata        0x000000001fff9548       0x20 build_mx8qx_b0/devices/MX8QX/system_MX8QX.o
 .rodata        0x000000001fff9568       0x20 build_mx8qx_b0/devices/MX8QX/handlers_MX8QX.o
 .rodata        0x000000001fff9588       0x84 build_mx8qx_b0/main/monitor.o
 .rodata        0x000000001fff960c       0x40 build_mx8qx_b0/soc/MX8QX/soc.o
 .rodata        0x000000001fff964c        0xb build_mx8qx_b0/board/mx8qx_mek/board.o
 *(.rodata*)
 *fill*         0x000000001fff9657        0x1 
 .rodata.ss_csreq_handlers
                0x000000001fff9658       0x40 build_mx8qx_b0/devices/MX8QX/handlers_MX8QX.o
 .rodata.main.str1.1
                0x000000001fff9698      0x131 build_mx8qx_b0/main/main.o
 .rodata.main_banners.str1.1
                0x000000001fff97c9       0x58 build_mx8qx_b0/main/main_common.o
 .rodata.main_pll_debug.str1.1
                0x000000001fff9821       0x8f build_mx8qx_b0/main/main_common.o
 .rodata.pnames
                0x000000001fff98b0      0x2b8 build_mx8qx_b0/main/main_common.o
                0x000000001fff98b0                pnames
 .rodata.rnames
                0x000000001fff9b68      0x608 build_mx8qx_b0/main/main_common.o
                0x000000001fff9b68                rnames
 .rodata.rom_boot_addr
                0x000000001fffa170       0x80 build_mx8qx_b0/main/main_common.o
 .rodata.sc_memmap
                0x000000001fffa1f0      0x130 build_mx8qx_b0/main/main_common.o
                0x000000001fffa1f0                sc_memmap
 .rodata.sc_ss_info
                0x000000001fffa320       0x88 build_mx8qx_b0/main/main_common.o
                0x000000001fffa320                sc_ss_info
 .rodata.snames
                0x000000001fffa3a8       0x44 build_mx8qx_b0/main/main_common.o
                0x000000001fffa3a8                snames
 .rodata.str1.1
                0x000000001fffa3ec     0x16d8 build_mx8qx_b0/main/main_common.o
                                       0x172b (size before relaxing)
 *fill*         0x000000001fffbac4        0x4 
 .rodata.boot_info_defstart
                0x000000001fffbac8       0xa0 build_mx8qx_b0/main/boot.o
 .rodata.boot_info_nostart
                0x000000001fffbb68       0xa0 build_mx8qx_b0/main/boot.o
 .rodata.sc_rom_ss
                0x000000001fffbc08       0x11 build_mx8qx_b0/main/boot.o
 .rodata.sc_rpc_dispatch.str1.1
                0x000000001fffbc19       0x54 build_mx8qx_b0/main/rpc.o
 .rodata.cmd_md.str1.1
                0x000000001fffbc6d       0x19 build_mx8qx_b0/main/monitor.o
                                         0x1b (size before relaxing)
 .rodata.monitor.str1.1
                0x000000001fffbc86      0x42a build_mx8qx_b0/main/monitor.o
                                        0x450 (size before relaxing)
 .rodata.restore_cursor_pos.str1.1
                0x000000001fffc0b0      0x42a build_mx8qx_b0/main/monitor.o
                                          0x2 (size before relaxing)
 .rodata.str1.1
                0x000000001fffc0b0       0xd7 build_mx8qx_b0/main/monitor.o
                                         0xf4 (size before relaxing)
 *fill*         0x000000001fffc187        0x1 
 .rodata.temp_list
                0x000000001fffc188       0x16 build_mx8qx_b0/main/monitor.o
                0x000000001fffc188                temp_list
 *fill*         0x000000001fffc19e        0x2 
 .rodata.temp_names
                0x000000001fffc1a0       0x2c build_mx8qx_b0/main/monitor.o
                0x000000001fffc1a0                temp_names
 .rodata.y_n    0x000000001fffc1cc        0x8 build_mx8qx_b0/main/monitor.o
                0x000000001fffc1cc                y_n
 .rodata._exit.str1.1
                0x000000001fffc1d4        0x5 build_mx8qx_b0/utilities/newlib_stubs.o
 .rodata._sbrk.str1.1
                0x000000001fffc1d4       0x10 build_mx8qx_b0/utilities/newlib_stubs.o
 .rodata.dpll_tbl_lookup
                0x000000001fffc1e4       0x40 build_mx8qx_b0/soc/MX8QX/soc.o
 .rodata.soc_ddr_enter_retention.str1.1
                0x000000001fffc224       0x36 build_mx8qx_b0/soc/common/soc_common.o
 .rodata.soc_sync_sys_if_pm.str1.1
                0x000000001fffc25a       0x33 build_mx8qx_b0/soc/common/soc_common.o
 .rodata.soc_trans_cpu_power_mode.str1.1
                0x000000001fffc28d       0x9a build_mx8qx_b0/soc/common/soc_common.o
 .rodata.DSC_AIPllEnable.str1.1
                0x000000001fffc327       0x8c build_mx8qx_b0/drivers/dsc/fsl_dsc_ai.o
 .rodata.XRDC_PacCheck.str1.1
                0x000000001fffc3b3       0x1b build_mx8qx_b0/drivers/xrdc2/fsl_xrdc2.o
 .rodata.check_pac_slot.str1.1
                0x000000001fffc3ce       0x3d build_mx8qx_b0/drivers/xrdc2/fsl_xrdc2.o
 .rodata.SECO_DumpEvents.str1.1
                0x000000001fffc40b       0x19 build_mx8qx_b0/drivers/seco/v2/fsl_seco.o
 .rodata.seco_err_xlate.str1.1
                0x000000001fffc424       0x22 build_mx8qx_b0/drivers/seco/v2/fsl_seco.o
 .rodata.LPI2C_MasterReceive.str1.1
                0x000000001fffc446        0x7 build_mx8qx_b0/drivers/lpi2c/fsl_lpi2c.o
 .rodata.LPI2C_MasterSend.str1.1
                0x000000001fffc44d        0x7 build_mx8qx_b0/drivers/lpi2c/fsl_lpi2c.o
 .rodata.LPI2C_SlaveCheckAndClearError.str1.1
                0x000000001fffc454       0x29 build_mx8qx_b0/drivers/lpi2c/fsl_lpi2c.o
 .rodata.__func__.7783
                0x000000001fffc47d       0x12 build_mx8qx_b0/drivers/lpi2c/fsl_lpi2c.o
 .rodata.__func__.7800
                0x000000001fffc48f       0x1f build_mx8qx_b0/drivers/lpi2c/fsl_lpi2c.o
 .rodata.__func__.7879
                0x000000001fffc4ae       0x14 build_mx8qx_b0/drivers/lpi2c/fsl_lpi2c.o
 .rodata.__func__.7892
                0x000000001fffc4c2       0x11 build_mx8qx_b0/drivers/lpi2c/fsl_lpi2c.o
 *fill*         0x000000001fffc4d3        0x1 
 .rodata.kLpi2cBases
                0x000000001fffc4d4       0x50 build_mx8qx_b0/drivers/lpi2c/fsl_lpi2c.o
 .rodata.kLpi2cClocks
                0x000000001fffc524       0x2c build_mx8qx_b0/drivers/lpi2c/fsl_lpi2c.o
 .rodata.LPIT_Init.str1.1
                0x000000001fffc550       0x28 build_mx8qx_b0/drivers/lpit/fsl_lpit.o
 .rodata.__func__.7473
                0x000000001fffc578        0xa build_mx8qx_b0/drivers/lpit/fsl_lpit.o
 .rodata.LPUART_GetInstance.str1.1
                0x000000001fffc582       0x4d build_mx8qx_b0/drivers/lpuart/fsl_lpuart.o
 .rodata.LPUART_Init.str1.1
                0x000000001fffc5cf       0xbb build_mx8qx_b0/drivers/lpuart/fsl_lpuart.o
                                         0xc2 (size before relaxing)
 .rodata.__func__.7663
                0x000000001fffc68a       0x13 build_mx8qx_b0/drivers/lpuart/fsl_lpuart.o
 .rodata.__func__.7697
                0x000000001fffc69d        0xc build_mx8qx_b0/drivers/lpuart/fsl_lpuart.o
 .rodata.__func__.7722
                0x000000001fffc6a9       0x18 build_mx8qx_b0/drivers/lpuart/fsl_lpuart.o
 *fill*         0x000000001fffc6c1        0x3 
 .rodata.s_lpuartBases
                0x000000001fffc6c4       0x24 build_mx8qx_b0/drivers/lpuart/fsl_lpuart.o
 .rodata.s_lpuartClock
                0x000000001fffc6e8       0x18 build_mx8qx_b0/drivers/lpuart/fsl_lpuart.o
 .rodata.MU_SendMsg.str1.1
                0x000000001fffc700       0x34 build_mx8qx_b0/drivers/mu/fsl_mu.o
 .rodata.__func__.7492
                0x000000001fffc734        0xb build_mx8qx_b0/drivers/mu/fsl_mu.o
 .rodata.__func__.7500
                0x000000001fffc73f        0xe build_mx8qx_b0/drivers/mu/fsl_mu.o
 .rodata.i2c_read_sub.str1.1
                0x000000001fffc74d       0x15 build_mx8qx_b0/drivers/pmic/fsl_pmic.o
 .rodata.pmic_get_device_id.str1.1
                0x000000001fffc762        0xf build_mx8qx_b0/drivers/pmic/fsl_pmic.o
 *fill*         0x000000001fffc771        0x3 
 .rodata.ldo_table
                0x000000001fffc774       0x40 build_mx8qx_b0/drivers/pmic/pf8100/fsl_pf8100.o
 .rodata.ldo_table_a0
                0x000000001fffc7b4       0x40 build_mx8qx_b0/drivers/pmic/pf8100/fsl_pf8100.o
 .rodata.pf8100_pmic_get_voltage.str1.1
                0x000000001fffc7f4       0x3e build_mx8qx_b0/drivers/pmic/pf8100/fsl_pf8100.o
 .rodata.pf8100_pmic_register_access.str1.1
                0x000000001fffc832       0x7f build_mx8qx_b0/drivers/pmic/pf8100/fsl_pf8100.o
 .rodata.pf8100_pmic_set_mode.str1.1
                0x000000001fffc8b1       0x72 build_mx8qx_b0/drivers/pmic/pf8100/fsl_pf8100.o
 .rodata.pf8100_pmic_set_voltage.str1.1
                0x000000001fffc923       0x3e build_mx8qx_b0/drivers/pmic/pf8100/fsl_pf8100.o
 *fill*         0x000000001fffc961        0x3 
 .rodata.sw7v_lookup
                0x000000001fffc964       0x80 build_mx8qx_b0/drivers/pmic/pf8100/fsl_pf8100.o
 .rodata.pf100_pmic_get_voltage.str1.1
                0x000000001fffc9e4       0x40 build_mx8qx_b0/drivers/pmic/pf100/fsl_pf100.o
 .rodata.pf100_pmic_register_access.str1.1
                0x000000001fffca24       0x7f build_mx8qx_b0/drivers/pmic/pf100/fsl_pf100.o
 .rodata.sc_ss_ep
                0x000000001fffca24      0x94c build_mx8qx_b0/ss/inf/inf.o
                0x000000001fffca24                sc_ss_ep
 .rodata.ss_base_info
                0x000000001fffd370       0x44 build_mx8qx_b0/ss/inf/inf.o
                0x000000001fffd370                ss_base_info
 .rodata.ctrl_info
                0x000000001fffd3b4       0x1e build_mx8qx_b0/ss/sc/v2/ss.o
 *fill*         0x000000001fffd3d2        0x2 
 .rodata.mdac_info
                0x000000001fffd3d4       0x18 build_mx8qx_b0/ss/sc/v2/ss.o
 *fill*         0x000000001fffd3ec        0x4 
 .rodata.mrc_info
                0x000000001fffd3f0       0x40 build_mx8qx_b0/ss/sc/v2/ss.o
 .rodata.msc_info
                0x000000001fffd430        0x3 build_mx8qx_b0/ss/sc/v2/ss.o
 *fill*         0x000000001fffd433        0x1 
 .rodata.pac_info
                0x000000001fffd434       0x6c build_mx8qx_b0/ss/sc/v2/ss.o
 .rodata.rsrc_map
                0x000000001fffd4a0       0x80 build_mx8qx_b0/ss/sc/v2/ss.o
 .rodata.ss_base_info_sc
                0x000000001fffd520       0x60 build_mx8qx_b0/ss/sc/v2/ss.o
                0x000000001fffd520                ss_base_info_sc
 .rodata.ss_clk_info
                0x000000001fffd580       0x68 build_mx8qx_b0/ss/sc/v2/ss.o
 .rodata.ss_csreq_handler_dbgpwrup.str1.1
                0x000000001fffd5e8       0x1d build_mx8qx_b0/ss/sc/v2/ss.o
 .rodata.ss_iso_info
                0x000000001fffd605        0x8 build_mx8qx_b0/ss/sc/v2/ss.o
 *fill*         0x000000001fffd60d        0x3 
 .rodata.ss_l2irq_handlers_sc
                0x000000001fffd610       0x80 build_mx8qx_b0/ss/sc/v2/ss.o
                0x000000001fffd610                ss_l2irq_handlers_sc
 .rodata.ss_pd_info
                0x000000001fffd690        0xc build_mx8qx_b0/ss/sc/v2/ss.o
 .rodata.ss_rsrc_info
                0x000000001fffd69c      0x200 build_mx8qx_b0/ss/sc/v2/ss.o
 .rodata.xexp_info
                0x000000001fffd89c       0x2c build_mx8qx_b0/ss/sc/v2/ss.o
 .rodata.ctrl_info
                0x000000001fffd8c8       0x3c build_mx8qx_b0/ss/adma/v2/ss.o
 .rodata.mdac_info
                0x000000001fffd904       0x30 build_mx8qx_b0/ss/adma/v2/ss.o
 .rodata.msc_info
                0x000000001fffd934        0x2 build_mx8qx_b0/ss/adma/v2/ss.o
 *fill*         0x000000001fffd936        0x2 
 .rodata.pac_info
                0x000000001fffd938       0xd8 build_mx8qx_b0/ss/adma/v2/ss.o
 .rodata.rsrc_map
                0x000000001fffda10      0x250 build_mx8qx_b0/ss/adma/v2/ss.o
 .rodata.ss_base_info_adma
                0x000000001fffdc60       0x60 build_mx8qx_b0/ss/adma/v2/ss.o
                0x000000001fffdc60                ss_base_info_adma
 .rodata.ss_clk_info
                0x000000001fffdcc0      0x118 build_mx8qx_b0/ss/adma/v2/ss.o
 .rodata.ss_iso_info
                0x000000001fffddd8        0x8 build_mx8qx_b0/ss/adma/v2/ss.o
 .rodata.ss_l2irq_handlers_adma
                0x000000001fffdde0       0x80 build_mx8qx_b0/ss/adma/v2/ss.o
                0x000000001fffdde0                ss_l2irq_handlers_adma
 .rodata.ss_pd_info
                0x000000001fffde60        0xc build_mx8qx_b0/ss/adma/v2/ss.o
 .rodata.ss_rsrc_info
                0x000000001fffde6c      0x940 build_mx8qx_b0/ss/adma/v2/ss.o
 .rodata.xexp_info
                0x000000001fffe7ac       0xdc build_mx8qx_b0/ss/adma/v2/ss.o
 .rodata.mdac_info
                0x000000001fffe888       0x18 build_mx8qx_b0/ss/vpu/v4/ss.o
 .rodata.pac_info
                0x000000001fffe8a0       0x48 build_mx8qx_b0/ss/vpu/v4/ss.o
 .rodata.rsrc_map
                0x000000001fffe8e8       0x34 build_mx8qx_b0/ss/vpu/v4/ss.o
 *fill*         0x000000001fffe91c        0x4 
 .rodata.ss_base_info_vpu
                0x000000001fffe920       0x60 build_mx8qx_b0/ss/vpu/v4/ss.o
                0x000000001fffe920                ss_base_info_vpu
 .rodata.ss_clk_info
                0x000000001fffe980       0x30 build_mx8qx_b0/ss/vpu/v4/ss.o
 .rodata.ss_iso_info
                0x000000001fffe9b0        0x8 build_mx8qx_b0/ss/vpu/v4/ss.o
 .rodata.ss_pd_info
                0x000000001fffe9b8        0xc build_mx8qx_b0/ss/vpu/v4/ss.o
 .rodata.ss_rsrc_info
                0x000000001fffe9c4       0xd0 build_mx8qx_b0/ss/vpu/v4/ss.o
 .rodata.xexp_info
                0x000000001fffea94       0x30 build_mx8qx_b0/ss/vpu/v4/ss.o
 *fill*         0x000000001fffeac4        0x4 
 .rodata.mrc_info
                0x000000001fffeac8       0x80 build_mx8qx_b0/ss/lsio/v2/ss.o
 .rodata.mu_list
                0x000000001fffeb48        0xa build_mx8qx_b0/ss/lsio/v2/ss.o
 *fill*         0x000000001fffeb52        0x2 
 .rodata.pac_info
                0x000000001fffeb54       0x24 build_mx8qx_b0/ss/lsio/v2/ss.o
 .rodata.rsrc_map
                0x000000001fffeb78       0xe4 build_mx8qx_b0/ss/lsio/v2/ss.o
 *fill*         0x000000001fffec5c        0x4 
 .rodata.ss_base_info_lsio
                0x000000001fffec60       0x60 build_mx8qx_b0/ss/lsio/v2/ss.o
                0x000000001fffec60                ss_base_info_lsio
 .rodata.ss_clk_info
                0x000000001fffecc0       0xb0 build_mx8qx_b0/ss/lsio/v2/ss.o
 .rodata.ss_iso_info
                0x000000001fffed70        0x8 build_mx8qx_b0/ss/lsio/v2/ss.o
 .rodata.ss_l2irq_handlers_lsio
                0x000000001fffed78       0x80 build_mx8qx_b0/ss/lsio/v2/ss.o
                0x000000001fffed78                ss_l2irq_handlers_lsio
 .rodata.ss_pd_info
                0x000000001fffedf8        0x8 build_mx8qx_b0/ss/lsio/v2/ss.o
 .rodata.ss_rsrc_info
                0x000000001fffee00      0x390 build_mx8qx_b0/ss/lsio/v2/ss.o
 .rodata.xexp_info
                0x000000001ffff190        0x8 build_mx8qx_b0/ss/lsio/v2/ss.o
 .rodata.mdac_info
                0x000000001ffff198        0x8 build_mx8qx_b0/ss/a35/v1/ss.o
 .rodata.qc_cpu
                0x000000001ffff1a0       0x10 build_mx8qx_b0/ss/a35/v1/ss.o
 .rodata.qc_l2  0x000000001ffff1b0        0x4 build_mx8qx_b0/ss/a35/v1/ss.o
 .rodata.qc_neon
                0x000000001ffff1b4       0x10 build_mx8qx_b0/ss/a35/v1/ss.o
 .rodata.rsrc_map
                0x000000001ffff1c4       0x14 build_mx8qx_b0/ss/a35/v1/ss.o
 .rodata.ss_base_info_a35
                0x000000001ffff1d8       0x60 build_mx8qx_b0/ss/a35/v1/ss.o
                0x000000001ffff1d8                ss_base_info_a35
 .rodata.ss_clk_info
                0x000000001ffff238       0x20 build_mx8qx_b0/ss/a35/v1/ss.o
 .rodata.ss_iso_info
                0x000000001ffff258        0x8 build_mx8qx_b0/ss/a35/v1/ss.o
 .rodata.ss_l2irq_handlers_a35
                0x000000001ffff260       0x80 build_mx8qx_b0/ss/a35/v1/ss.o
                0x000000001ffff260                ss_l2irq_handlers_a35
 .rodata.ss_pd_info
                0x000000001ffff2e0       0x18 build_mx8qx_b0/ss/a35/v1/ss.o
 .rodata.ss_rsrc_info
                0x000000001ffff2f8       0x50 build_mx8qx_b0/ss/a35/v1/ss.o
 .rodata.CSWTCH.77
                0x000000001ffff348       0x28 build_mx8qx_b0/ss/base/ss.o
 .rodata.ss_config_auto_clk_mode.str1.1
                0x000000001ffff370       0x28 build_mx8qx_b0/ss/base/ss.o
 .rodata.ss_dsc_l2irq_handlers_base
                0x000000001ffff398       0x80 build_mx8qx_b0/ss/base/ss.o
                0x000000001ffff398                ss_dsc_l2irq_handlers_base
 .rodata.ss_l2irq_handlers_base
                0x000000001ffff418       0x80 build_mx8qx_b0/ss/base/ss.o
                0x000000001ffff418                ss_l2irq_handlers_base
 .rodata.ctrl_info
                0x000000001ffff498       0x66 build_mx8qx_b0/ss/conn/v1/ss.o
 *fill*         0x000000001ffff4fe        0x2 
 .rodata.mdac_info
                0x000000001ffff500        0x8 build_mx8qx_b0/ss/conn/v1/ss.o
 .rodata.pac_info
                0x000000001ffff508       0x24 build_mx8qx_b0/ss/conn/v1/ss.o
 .rodata.pll_conf
                0x000000001ffff52c       0x20 build_mx8qx_b0/ss/conn/v1/ss.o
 .rodata.rsrc_map
                0x000000001ffff54c       0x48 build_mx8qx_b0/ss/conn/v1/ss.o
 *fill*         0x000000001ffff594        0x4 
 .rodata.ss_base_info_conn
                0x000000001ffff598       0x60 build_mx8qx_b0/ss/conn/v1/ss.o
                0x000000001ffff598                ss_base_info_conn
 .rodata.ss_clk_info
                0x000000001ffff5f8       0xc8 build_mx8qx_b0/ss/conn/v1/ss.o
 .rodata.ss_iso_info
                0x000000001ffff6c0        0x8 build_mx8qx_b0/ss/conn/v1/ss.o
 .rodata.ss_pd_info
                0x000000001ffff6c8        0x8 build_mx8qx_b0/ss/conn/v1/ss.o
 .rodata.ss_rsrc_info
                0x000000001ffff6d0      0x120 build_mx8qx_b0/ss/conn/v1/ss.o
 .rodata.xexp_info
                0x000000001ffff7f0       0x6c build_mx8qx_b0/ss/conn/v1/ss.o
 .rodata.ctrl_info
                0x000000001ffff85c       0x18 build_mx8qx_b0/ss/csi/v1/ss.o
 .rodata.rsrc_map
                0x000000001ffff874       0x18 build_mx8qx_b0/ss/csi/v1/ss.o
 *fill*         0x000000001ffff88c        0x4 
 .rodata.ss_base_info_csi
                0x000000001ffff890       0x60 build_mx8qx_b0/ss/csi/v1/ss.o
                0x000000001ffff890                ss_base_info_csi
 .rodata.ss_clk_info
                0x000000001ffff8f0       0x38 build_mx8qx_b0/ss/csi/v1/ss.o
 .rodata.ss_iso_info
                0x000000001ffff928        0x8 build_mx8qx_b0/ss/csi/v1/ss.o
 .rodata.ss_pd_info
                0x000000001ffff930        0x8 build_mx8qx_b0/ss/csi/v1/ss.o
 .rodata.ss_rsrc_info
                0x000000001ffff938       0x30 build_mx8qx_b0/ss/csi/v1/ss.o
 .rodata.mrc_info
                0x000000001ffff968       0x80 build_mx8qx_b0/ss/db/v2/ss.o
 .rodata.pac_info
                0x000000001ffff9e8       0xb4 build_mx8qx_b0/ss/db/v2/ss.o
 .rodata.rsrc_map
                0x000000001ffffa9c        0x4 build_mx8qx_b0/ss/db/v2/ss.o
 .rodata.ss_base_info_db
                0x000000001ffffaa0       0x60 build_mx8qx_b0/ss/db/v2/ss.o
                0x000000001ffffaa0                ss_base_info_db
 .rodata.ss_clk_info
                0x000000001ffffb00       0x38 build_mx8qx_b0/ss/db/v2/ss.o
 .rodata.ss_iso_info
                0x000000001ffffb38        0x8 build_mx8qx_b0/ss/db/v2/ss.o
 .rodata.ss_pd_info
                0x000000001ffffb40        0x8 build_mx8qx_b0/ss/db/v2/ss.o
 .rodata.ss_rsrc_info
                0x000000001ffffb48       0x10 build_mx8qx_b0/ss/db/v2/ss.o
 .rodata.xexp_info
                0x000000001ffffb58       0x20 build_mx8qx_b0/ss/db/v2/ss.o
 .rodata.ctrl_info
                0x000000001ffffb78       0x7e build_mx8qx_b0/ss/dc/v1/ss.o
 *fill*         0x000000001ffffbf6        0x2 
 .rodata.mdac_info
                0x000000001ffffbf8        0x8 build_mx8qx_b0/ss/dc/v1/ss.o
 .rodata.pac_info
                0x000000001ffffc00       0x24 build_mx8qx_b0/ss/dc/v1/ss.o
 .rodata.rsrc_map
                0x000000001ffffc24       0x58 build_mx8qx_b0/ss/dc/v1/ss.o
 *fill*         0x000000001ffffc7c        0x4 
 .rodata.ss_base_info_dc
                0x000000001ffffc80       0x60 build_mx8qx_b0/ss/dc/v1/ss.o
                0x000000001ffffc80                ss_base_info_dc
 .rodata.ss_clk_info
                0x000000001ffffce0       0x60 build_mx8qx_b0/ss/dc/v1/ss.o
 .rodata.ss_iso_info
                0x000000001ffffd40        0x8 build_mx8qx_b0/ss/dc/v1/ss.o
 .rodata.ss_pd_info
                0x000000001ffffd48        0x8 build_mx8qx_b0/ss/dc/v1/ss.o
 .rodata.ss_rsrc_info
                0x000000001ffffd50      0x120 build_mx8qx_b0/ss/dc/v1/ss.o
 .rodata.xexp_info
                0x000000001ffffe70       0x1c build_mx8qx_b0/ss/dc/v1/ss.o
 .rodata.pac_info
                0x000000001ffffe8c       0x24 build_mx8qx_b0/ss/drc/v2/ss.o
 .rodata.rsrc_map
                0x000000001ffffeb0        0x8 build_mx8qx_b0/ss/drc/v2/ss.o
 .rodata.ss_base_info_drc
                0x000000001ffffeb8       0x60 build_mx8qx_b0/ss/drc/v2/ss.o
                0x000000001ffffeb8                ss_base_info_drc
 .rodata.ss_clk_info
                0x000000001fffff18       0x20 build_mx8qx_b0/ss/drc/v2/ss.o
 .rodata.ss_iso_info
                0x000000001fffff38        0x8 build_mx8qx_b0/ss/drc/v2/ss.o
 .rodata.ss_pd_info
                0x000000001fffff40        0x8 build_mx8qx_b0/ss/drc/v2/ss.o
 .rodata.ss_rsrc_info
                0x000000001fffff48       0x10 build_mx8qx_b0/ss/drc/v2/ss.o
 .rodata.xexp_info
                0x000000001fffff58       0x10 build_mx8qx_b0/ss/drc/v2/ss.o
 .rodata.ctrl_info
                0x000000001fffff68        0x6 build_mx8qx_b0/ss/gpu/v2/ss.o
 *fill*         0x000000001fffff6e        0x2 
 .rodata.mdac_info
                0x000000001fffff70        0x8 build_mx8qx_b0/ss/gpu/v2/ss.o
 .rodata.msc_info
                0x000000001fffff78        0x1 build_mx8qx_b0/ss/gpu/v2/ss.o
 *fill*         0x000000001fffff79        0x1 
 .rodata.rsrc_map
                0x000000001fffff7a       0x20 build_mx8qx_b0/ss/gpu/v2/ss.o
 *fill*         0x000000001fffff9a        0x6 
 .rodata.ss_base_info_gpu
                0x000000001fffffa0       0x60 build_mx8qx_b0/ss/gpu/v2/ss.o
                0x000000001fffffa0                ss_base_info_gpu
 .rodata.ss_clk_info
                0x0000000020000000       0x48 build_mx8qx_b0/ss/gpu/v2/ss.o
 .rodata.ss_iso_info
                0x0000000020000048        0x8 build_mx8qx_b0/ss/gpu/v2/ss.o
 .rodata.ss_pd_info
                0x0000000020000050        0x8 build_mx8qx_b0/ss/gpu/v2/ss.o
 .rodata.ss_rsrc_info
                0x0000000020000058       0x40 build_mx8qx_b0/ss/gpu/v2/ss.o
 .rodata.mdac_info
                0x0000000020000098        0x8 build_mx8qx_b0/ss/hsio/v2/ss.o
 .rodata.mrc_info
                0x00000000200000a0       0x40 build_mx8qx_b0/ss/hsio/v2/ss.o
 .rodata.msc_info
                0x00000000200000e0        0x2 build_mx8qx_b0/ss/hsio/v2/ss.o
 *fill*         0x00000000200000e2        0x2 
 .rodata.pac_info
                0x00000000200000e4       0x24 build_mx8qx_b0/ss/hsio/v2/ss.o
 .rodata.rsrc_map
                0x0000000020000108       0x80 build_mx8qx_b0/ss/hsio/v2/ss.o
 .rodata.ss_base_info_hsio
                0x0000000020000188       0x60 build_mx8qx_b0/ss/hsio/v2/ss.o
                0x0000000020000188                ss_base_info_hsio
 .rodata.ss_clk_info
                0x00000000200001e8       0x40 build_mx8qx_b0/ss/hsio/v2/ss.o
 .rodata.ss_iso_info
                0x0000000020000228        0x8 build_mx8qx_b0/ss/hsio/v2/ss.o
 .rodata.ss_pd_info
                0x0000000020000230       0x10 build_mx8qx_b0/ss/hsio/v2/ss.o
 .rodata.ss_rsrc_info
                0x0000000020000240      0x200 build_mx8qx_b0/ss/hsio/v2/ss.o
 .rodata.xexp_info
                0x0000000020000440       0x34 build_mx8qx_b0/ss/hsio/v2/ss.o
 .rodata.mdac_info
                0x0000000020000474        0x8 build_mx8qx_b0/ss/img/v1/ss.o
 .rodata.pac_info
                0x000000002000047c       0x24 build_mx8qx_b0/ss/img/v1/ss.o
 .rodata.rsrc_map
                0x00000000200004a0       0x48 build_mx8qx_b0/ss/img/v1/ss.o
 .rodata.ss_base_info_img
                0x00000000200004e8       0x60 build_mx8qx_b0/ss/img/v1/ss.o
                0x00000000200004e8                ss_base_info_img
 .rodata.ss_clk_info
                0x0000000020000548       0x30 build_mx8qx_b0/ss/img/v1/ss.o
 .rodata.ss_iso_info
                0x0000000020000578        0x8 build_mx8qx_b0/ss/img/v1/ss.o
 .rodata.ss_pd_info
                0x0000000020000580        0xc build_mx8qx_b0/ss/img/v1/ss.o
 .rodata.ss_rsrc_info
                0x000000002000058c      0x1a0 build_mx8qx_b0/ss/img/v1/ss.o
 .rodata.xexp_info
                0x000000002000072c       0x28 build_mx8qx_b0/ss/img/v1/ss.o
 .rodata.mdac_info
                0x0000000020000754        0x8 build_mx8qx_b0/ss/m4/v1/ss.o
 *fill*         0x000000002000075c        0x4 
 .rodata.mrc_info
                0x0000000020000760       0x40 build_mx8qx_b0/ss/m4/v1/ss.o
 .rodata.msc_info
                0x00000000200007a0        0x1 build_mx8qx_b0/ss/m4/v1/ss.o
 *fill*         0x00000000200007a1        0x3 
 .rodata.pac_info
                0x00000000200007a4       0x24 build_mx8qx_b0/ss/m4/v1/ss.o
 .rodata.rsrc_map
                0x00000000200007c8       0x90 build_mx8qx_b0/ss/m4/v1/ss.o
 .rodata.ss_base_info_m4
                0x0000000020000858       0x60 build_mx8qx_b0/ss/m4/v1/ss.o
                0x0000000020000858                ss_base_info_m4
 .rodata.ss_clk_info
                0x00000000200008b8       0x50 build_mx8qx_b0/ss/m4/v1/ss.o
 .rodata.ss_dsc_handler_reset.isra.1.str1.1
                0x0000000020000908       0x19 build_mx8qx_b0/ss/m4/v1/ss.o
 .rodata.ss_iso_info
                0x0000000020000921        0x8 build_mx8qx_b0/ss/m4/v1/ss.o
 *fill*         0x0000000020000929        0x3 
 .rodata.ss_l2irq_handlers_m4
                0x000000002000092c       0x80 build_mx8qx_b0/ss/m4/v1/ss.o
                0x000000002000092c                ss_l2irq_handlers_m4
 .rodata.ss_lp_mslice_div
                0x00000000200009ac       0x10 build_mx8qx_b0/ss/m4/v1/ss.o
 .rodata.ss_pd_info
                0x00000000200009bc        0x8 build_mx8qx_b0/ss/m4/v1/ss.o
 .rodata.ss_rsrc_info
                0x00000000200009c4      0x120 build_mx8qx_b0/ss/m4/v1/ss.o
 .rodata.xexp_info
                0x0000000020000ae4       0x14 build_mx8qx_b0/ss/m4/v1/ss.o
 .rodata.ctrl_info
                0x0000000020000af8       0x2a build_mx8qx_b0/ss/mipi/v2/ss.o
 .rodata.rsrc_map
                0x0000000020000b22       0x28 build_mx8qx_b0/ss/mipi/v2/ss.o
 *fill*         0x0000000020000b4a        0x6 
 .rodata.ss_base_info_mipi
                0x0000000020000b50       0x60 build_mx8qx_b0/ss/mipi/v2/ss.o
                0x0000000020000b50                ss_base_info_mipi
 .rodata.ss_clk_info
                0x0000000020000bb0       0x78 build_mx8qx_b0/ss/mipi/v2/ss.o
 .rodata.ss_iso_info
                0x0000000020000c28        0x8 build_mx8qx_b0/ss/mipi/v2/ss.o
 .rodata.ss_pd_info
                0x0000000020000c30        0x8 build_mx8qx_b0/ss/mipi/v2/ss.o
 .rodata.ss_rsrc_info
                0x0000000020000c38       0x50 build_mx8qx_b0/ss/mipi/v2/ss.o
 .rodata.rsrc_map
                0x0000000020000c88       0x20 build_mx8qx_b0/ss/pi/v1/ss.o
 .rodata.ss_base_info_pi
                0x0000000020000ca8       0x60 build_mx8qx_b0/ss/pi/v1/ss.o
                0x0000000020000ca8                ss_base_info_pi
 .rodata.ss_clk_info
                0x0000000020000d08       0x50 build_mx8qx_b0/ss/pi/v1/ss.o
 .rodata.ss_iso_info
                0x0000000020000d58        0x8 build_mx8qx_b0/ss/pi/v1/ss.o
 .rodata.ss_pd_info
                0x0000000020000d60        0x8 build_mx8qx_b0/ss/pi/v1/ss.o
 .rodata.ss_rsrc_info
                0x0000000020000d68       0x40 build_mx8qx_b0/ss/pi/v1/ss.o
 .rodata.CSWTCH.47
                0x0000000020000da8        0x4 build_mx8qx_b0/board/mx8qx_mek/board.o
 .rodata.board_config_debug_uart.str1.1
                0x0000000020000dac       0x46 build_mx8qx_b0/board/mx8qx_mek/board.o
 .rodata.board_cpu_reset.str1.1
                0x0000000020000df2       0x29 build_mx8qx_b0/board/mx8qx_mek/board.o
 *fill*         0x0000000020000e1b        0x1 
 .rodata.board_ddr_period_ms
                0x0000000020000e1c        0x4 build_mx8qx_b0/board/mx8qx_mek/board.o
                0x0000000020000e1c                board_ddr_period_ms
 .rodata.board_ddr_ret_region.11950
                0x0000000020000e20       0x24 build_mx8qx_b0/board/mx8qx_mek/board.o
 .rodata.board_get_control.str1.1
                0x0000000020000e44       0x36 build_mx8qx_b0/board/mx8qx_mek/board.o
 .rodata.board_init.str1.1
                0x0000000020000e7a       0x10 build_mx8qx_b0/board/mx8qx_mek/board.o
 .rodata.board_init_ddr.str1.1
                0x0000000020000e8a       0x2f build_mx8qx_b0/board/mx8qx_mek/board.o
 *fill*         0x0000000020000eb9        0x1 
 .rodata.board_num_rsrc
                0x0000000020000eba        0x2 build_mx8qx_b0/board/mx8qx_mek/board.o
                0x0000000020000eba                board_num_rsrc
 .rodata.board_panic.str1.1
                0x0000000020000ebc       0x15 build_mx8qx_b0/board/mx8qx_mek/board.o
 .rodata.board_reset.str1.1
                0x0000000020000ed1       0x23 build_mx8qx_b0/board/mx8qx_mek/board.o
 .rodata.board_rsrc_map
                0x0000000020000ef4       0x2c build_mx8qx_b0/board/mx8qx_mek/board.o
                0x0000000020000ef4                board_rsrc_map
 .rodata.board_security_violation.str1.1
                0x0000000020000f20       0x19 build_mx8qx_b0/board/mx8qx_mek/board.o
 .rodata.board_set_control.str1.1
                0x0000000020000f39       0x40 build_mx8qx_b0/board/mx8qx_mek/board.o
 .rodata.board_set_power_mode.str1.1
                0x0000000020000f79       0x26 build_mx8qx_b0/board/mx8qx_mek/board.o
 .rodata.board_set_voltage.str1.1
                0x0000000020000f9f       0x1f build_mx8qx_b0/board/mx8qx_mek/board.o
 .rodata.board_system_config.str1.1
                0x0000000020000fbe       0x32 build_mx8qx_b0/board/mx8qx_mek/board.o
 .rodata.board_trans_resource_power.str1.1
                0x0000000020000ff0       0x49 build_mx8qx_b0/board/mx8qx_mek/board.o
 .rodata.pmic_init.str1.1
                0x0000000020001039       0x3d build_mx8qx_b0/board/mx8qx_mek/board.o
 .rodata.misc_boot_status.str1.1
                0x0000000020001076       0x25 build_mx8qx_b0/svc/misc/svc.o
 .rodata.misc_debug_out.str1.1
                0x000000002000109b        0x3 build_mx8qx_b0/svc/misc/svc.o
 .rodata.pad_init_info
                0x000000002000109e       0x90 build_mx8qx_b0/svc/pad/svc.o
 .rodata.pad_map
                0x000000002000112e      0x15c build_mx8qx_b0/svc/pad/svc.o
 .rodata.pad_priority
                0x000000002000128a      0x2d4 build_mx8qx_b0/svc/pad/svc.o
 .rodata.rm_dump.str1.1
                0x000000002000155e       0xd0 build_mx8qx_b0/svc/rm/svc.o
 .rodata.rm_dump_memregs.str1.1
                0x000000002000162e       0x20 build_mx8qx_b0/svc/rm/svc.o
                                         0x35 (size before relaxing)
 .rodata.rm_dump_partition.str1.1
                0x000000002000164e       0xdd build_mx8qx_b0/svc/rm/svc.o
 .rodata.rm_dump_resources.str1.1
                0x000000002000172b       0x23 build_mx8qx_b0/svc/rm/svc.o
 .rodata.rm_init.str1.1
                0x000000002000174e       0x7c build_mx8qx_b0/svc/rm/svc.o
 .rodata.days_in_month
                0x00000000200017ca       0x18 build_mx8qx_b0/svc/timer/svc.o
 .rodata.irq_dispatch.str1.1
                0x00000000200017e2       0x25 build_mx8qx_b0/svc/irq/rpc_srv.o
 .rodata.misc_dispatch.str1.1
                0x0000000020001807       0x26 build_mx8qx_b0/svc/misc/rpc_srv.o
 .rodata.pad_dispatch.str1.1
                0x000000002000182d       0x25 build_mx8qx_b0/svc/pad/rpc_srv.o
 .rodata.pm_dispatch.str1.1
                0x0000000020001852       0x24 build_mx8qx_b0/svc/pm/rpc_srv.o
 .rodata.rm_dispatch.str1.1
                0x0000000020001876       0x24 build_mx8qx_b0/svc/rm/rpc_srv.o
 .rodata.timer_dispatch.str1.1
                0x000000002000189a       0x27 build_mx8qx_b0/svc/timer/rpc_srv.o
 .rodata.__assert_func.str1.1
                0x00000000200018c1       0x3c /home/jalcim/gcc_toolchain/gcc-arm-none-eabi-7-2018-q2-update/bin/../lib/gcc/arm-none-eabi/7.3.1/../../../../arm-none-eabi/lib/thumb/v7e-m/fpv4-sp/softfp/libc_nano.a(lib_a-assert.o)
                                         0x3d (size before relaxing)
 *fill*         0x00000000200018fd        0x3 
 .rodata.__sf_fake_stderr
                0x0000000020001900       0x20 /home/jalcim/gcc_toolchain/gcc-arm-none-eabi-7-2018-q2-update/bin/../lib/gcc/arm-none-eabi/7.3.1/../../../../arm-none-eabi/lib/thumb/v7e-m/fpv4-sp/softfp/libc_nano.a(lib_a-findfp.o)
                0x0000000020001900                __sf_fake_stderr
 .rodata.__sf_fake_stdin
                0x0000000020001920       0x20 /home/jalcim/gcc_toolchain/gcc-arm-none-eabi-7-2018-q2-update/bin/../lib/gcc/arm-none-eabi/7.3.1/../../../../arm-none-eabi/lib/thumb/v7e-m/fpv4-sp/softfp/libc_nano.a(lib_a-findfp.o)
                0x0000000020001920                __sf_fake_stdin
 .rodata.__sf_fake_stdout
                0x0000000020001940       0x20 /home/jalcim/gcc_toolchain/gcc-arm-none-eabi-7-2018-q2-update/bin/../lib/gcc/arm-none-eabi/7.3.1/../../../../arm-none-eabi/lib/thumb/v7e-m/fpv4-sp/softfp/libc_nano.a(lib_a-findfp.o)
                0x0000000020001940                __sf_fake_stdout
 .rodata._global_impure_ptr
                0x0000000020001960        0x4 /home/jalcim/gcc_toolchain/gcc-arm-none-eabi-7-2018-q2-update/bin/../lib/gcc/arm-none-eabi/7.3.1/../../../../arm-none-eabi/lib/thumb/v7e-m/fpv4-sp/softfp/libc_nano.a(lib_a-impure.o)
                0x0000000020001960                _global_impure_ptr
 .rodata._vfprintf_r.str1.1
                0x0000000020001964       0x11 /home/jalcim/gcc_toolchain/gcc-arm-none-eabi-7-2018-q2-update/bin/../lib/gcc/arm-none-eabi/7.3.1/../../../../arm-none-eabi/lib/thumb/v7e-m/fpv4-sp/softfp/libc_nano.a(lib_a-nano-vfprintf.o)
 .rodata._printf_i.str1.1
                0x0000000020001975       0x22 /home/jalcim/gcc_toolchain/gcc-arm-none-eabi-7-2018-q2-update/bin/../lib/gcc/arm-none-eabi/7.3.1/../../../../arm-none-eabi/lib/thumb/v7e-m/fpv4-sp/softfp/libc_nano.a(lib_a-nano-vfprintf_i.o)
 .rodata._setlocale_r.str1.1
                0x0000000020001997        0x6 /home/jalcim/gcc_toolchain/gcc-arm-none-eabi-7-2018-q2-update/bin/../lib/gcc/arm-none-eabi/7.3.1/../../../../arm-none-eabi/lib/thumb/v7e-m/fpv4-sp/softfp/libc_nano.a(lib_a-locale.o)
                                          0x9 (size before relaxing)
 .rodata.str1.1
                0x000000002000199d        0x2 /home/jalcim/gcc_toolchain/gcc-arm-none-eabi-7-2018-q2-update/bin/../lib/gcc/arm-none-eabi/7.3.1/../../../../arm-none-eabi/lib/thumb/v7e-m/fpv4-sp/softfp/libc_nano.a(lib_a-locale.o)
 .rodata._ctype_
                0x000000002000199f      0x101 /home/jalcim/gcc_toolchain/gcc-arm-none-eabi-7-2018-q2-update/bin/../lib/gcc/arm-none-eabi/7.3.1/../../../../arm-none-eabi/lib/thumb/v7e-m/fpv4-sp/softfp/libc_nano.a(lib_a-ctype_.o)
                0x000000002000199f                _ctype_

.rel.dyn        0x0000000020001aa0        0x0
 .rel.iplt      0x0000000020001aa0        0x0 build_mx8qx_b0/devices/startup.o

.fini_array     0x0000000020001aa0       0x20
                [!provide]                        PROVIDE (__fini_array_start = .)
 *(SORT_BY_NAME(.fini_array.*))
 *(.fini_array*)
                [!provide]                        PROVIDE (__fini_array_end = .)
                0x0000000020001ac0                . = ALIGN (0x40)
 *fill*         0x0000000020001aa0       0x20 
                0x0000000020001ac0                __etext = .
                0x0000000020001ac0                __DATA_ROM = .

.emul           0x000000002000fff0       0x10
                0x0000000020010000                . = (. + EMUL_SIZE)
 *fill*         0x000000002000fff0       0x10 

.data           0x0000000020010000      0x2c0 load address 0x0000000020001ac0
                0x0000000020010000                . = ALIGN (0x40)
                0x0000000020010000                __DATA_RAM = .
                0x0000000020010000                __data_start__ = .
 *(.data)
 *(.data*)
 .data.boot_data
                0x0000000020010000        0x4 build_mx8qx_b0/main/boot.o
 .data.a35_opp  0x0000000020010004       0x18 build_mx8qx_b0/soc/MX8QX/soc.o
 .data.dpll_tbl_0
                0x000000002001001c       0x20 build_mx8qx_b0/soc/MX8QX/soc.o
                0x000000002001001c                dpll_tbl_0
 .data.dpll_tbl_1
                0x000000002001003c       0x20 build_mx8qx_b0/soc/MX8QX/soc.o
                0x000000002001003c                dpll_tbl_1
 .data.gpu_opp  0x000000002001005c       0x18 build_mx8qx_b0/soc/MX8QX/soc.o
 .data.soc_rsrc_ddr
                0x0000000020010074        0x2 build_mx8qx_b0/soc/MX8QX/soc.o
 .data.soc_rsrc_icn
                0x0000000020010076        0x2 build_mx8qx_b0/soc/MX8QX/soc.o
 .data.soc_rsrc_mu
                0x0000000020010078        0xa build_mx8qx_b0/soc/MX8QX/soc.o
 .data.soc_rsrc_ocmem
                0x0000000020010082        0x6 build_mx8qx_b0/soc/MX8QX/soc.o
 .data.soc_saved_pm_ddr
                0x0000000020010088        0x1 build_mx8qx_b0/soc/MX8QX/soc.o
 .data.soc_saved_pm_icn
                0x0000000020010089        0x1 build_mx8qx_b0/soc/MX8QX/soc.o
 .data.soc_saved_pm_mu
                0x000000002001008a        0x5 build_mx8qx_b0/soc/MX8QX/soc.o
 .data.soc_saved_pm_ocmem
                0x000000002001008f        0x3 build_mx8qx_b0/soc/MX8QX/soc.o
 *fill*         0x0000000020010092        0x2 
 .data.curAlarm
                0x0000000020010094        0x4 build_mx8qx_b0/drivers/snvs/v2/fsl_snvs.o
 .data.si_rev   0x0000000020010098        0x1 build_mx8qx_b0/drivers/pmic/pf8100/fsl_pf8100.o
 *fill*         0x0000000020010099        0x3 
 .data.board_ddr_ret_info.11951
                0x000000002001009c       0x18 build_mx8qx_b0/board/mx8qx_mek/board.o
 .data.debug    0x00000000200100b4        0x1 build_mx8qx_b0/board/board_common.o
                0x00000000200100b4                debug
 .data.has_monitor
                0x00000000200100b5        0x1 build_mx8qx_b0/board/board_common.o
                0x00000000200100b5                has_monitor
 *fill*         0x00000000200100b6        0x2 
 .data._impure_ptr
                0x00000000200100b8        0x4 /home/jalcim/gcc_toolchain/gcc-arm-none-eabi-7-2018-q2-update/bin/../lib/gcc/arm-none-eabi/7.3.1/../../../../arm-none-eabi/lib/thumb/v7e-m/fpv4-sp/softfp/libc_nano.a(lib_a-impure.o)
                0x00000000200100b8                _impure_ptr
 .data.impure_data
                0x00000000200100bc       0x60 /home/jalcim/gcc_toolchain/gcc-arm-none-eabi-7-2018-q2-update/bin/../lib/gcc/arm-none-eabi/7.3.1/../../../../arm-none-eabi/lib/thumb/v7e-m/fpv4-sp/softfp/libc_nano.a(lib_a-impure.o)
 .data.__global_locale
                0x000000002001011c      0x16c /home/jalcim/gcc_toolchain/gcc-arm-none-eabi-7-2018-q2-update/bin/../lib/gcc/arm-none-eabi/7.3.1/../../../../arm-none-eabi/lib/thumb/v7e-m/fpv4-sp/softfp/libc_nano.a(lib_a-locale.o)
                0x000000002001011c                __global_locale
 *(.jcr*)
                0x00000000200102c0                . = ALIGN (0x40)
 *fill*         0x0000000020010288       0x38 
                0x00000000200102c0                __data_end__ = .
                0x000000001ffe0000                copy_start = LOADADDR (.interrupts)
                0x000000001ffe0000                copy_end = copy_start
                0x000000001ffe0000                copy_dest = copy_start
                0x0000000020001d80                __DATA_END = (__DATA_ROM + (__data_end__ - __data_start__))

.igot.plt       0x00000000200102c0        0x0 load address 0x0000000020001d80
 .igot.plt      0x00000000200102c0        0x0 build_mx8qx_b0/devices/startup.o

.noinit         0x00000000200102c0        0x0
                0x00000000200102c0                . = ALIGN (0x40)
                0x00000000200102c0                __NoInitBase = .
 *(.noinit)
 *(.noinit*)
                0x00000000200102c0                . = ALIGN (0x40)
                0x00000000200102c0                __NoInitEnd = .

.bss            0x00000000200102c0     0x69c0 load address 0x0000000020001d80
                0x00000000200102c0                . = ALIGN (0x40)
                0x00000000200102c0                __START_BSS = .
                0x00000000200102c0                __bss_start__ = .
 *(.bss)
 *(.bss*)
 .bss.lpcCR     0x00000000200102c0        0x4 build_mx8qx_b0/devices/MX8QX/system_MX8QX.o
 .bss.prepLPM   0x00000000200102c4        0x1 build_mx8qx_b0/devices/MX8QX/system_MX8QX.o
 *fill*         0x00000000200102c5        0x3 
 .bss.usecWakeLLS
                0x00000000200102c8        0x4 build_mx8qx_b0/devices/MX8QX/system_MX8QX.o
 .bss.gLPITcnt  0x00000000200102cc        0x4 build_mx8qx_b0/devices/MX8QX/handlers_MX8QX.o
                0x00000000200102cc                gLPITcnt
 .bss.rom_boot_rsrc
                0x00000000200102d0      0x304 build_mx8qx_b0/main/main_common.o
                0x00000000200102d0                rom_boot_rsrc
 .bss.rom_loaded
                0x00000000200105d4        0x1 build_mx8qx_b0/main/main_common.o
                0x00000000200105d4                rom_loaded
 .bss.rpc_debug
                0x00000000200105d5        0x1 build_mx8qx_b0/main/main_common.o
                0x00000000200105d5                rpc_debug
 *fill*         0x00000000200105d6        0x2 
 .bss.boot_data2
                0x00000000200105d8        0x4 build_mx8qx_b0/main/boot.o
 .bss.image_idx
                0x00000000200105dc        0x2 build_mx8qx_b0/main/boot.o
 *fill*         0x00000000200105de        0x2 
 .bss.rom_data  0x00000000200105e0        0x4 build_mx8qx_b0/main/boot.o
 .bss.heap_end.11332
                0x00000000200105e4        0x4 build_mx8qx_b0/utilities/newlib_stubs.o
 .bss.anamix_repeater_usecount
                0x00000000200105e8       0x3f build_mx8qx_b0/soc/MX8QX/soc.o
 *fill*         0x0000000020010627        0x1 
 .bss.ddr_phy_pgcr3
                0x0000000020010628        0x4 build_mx8qx_b0/soc/MX8QX/soc.o
 .bss.dpll_trim
                0x000000002001062c        0x4 build_mx8qx_b0/soc/MX8QX/soc.o
 .bss.phymix_repeater_usecount
                0x0000000020010630       0x3f build_mx8qx_b0/soc/MX8QX/soc.o
 *fill*         0x000000002001066f        0x1 
 .bss.scu_srut  0x0000000020010670        0x4 build_mx8qx_b0/soc/MX8QX/soc.o
 .bss.soc_cluster_state
                0x0000000020010674        0xc build_mx8qx_b0/soc/MX8QX/soc.o
                0x0000000020010674                soc_cluster_state
 .bss.soc_cpu_state_a35
                0x0000000020010680       0x40 build_mx8qx_b0/soc/MX8QX/soc.o
 .bss.soc_hmp   0x00000000200106c0       0x30 build_mx8qx_b0/soc/MX8QX/soc.o
                0x00000000200106c0                soc_hmp
 .bss.soc_hmp_node
                0x00000000200106f0       0x18 build_mx8qx_b0/soc/MX8QX/soc.o
 .bss.soc_m4_state
                0x0000000020010708       0x10 build_mx8qx_b0/soc/MX8QX/soc.o
                0x0000000020010708                soc_m4_state
 .bss.soc_max_gpu_freq
                0x0000000020010718        0x4 build_mx8qx_b0/soc/MX8QX/soc.o
 .bss.soc_rm_idx_ddr
                0x000000002001071c        0x2 build_mx8qx_b0/soc/MX8QX/soc.o
 .bss.soc_rm_idx_icn
                0x000000002001071e        0x2 build_mx8qx_b0/soc/MX8QX/soc.o
 .bss.soc_rm_idx_mu
                0x0000000020010720        0xa build_mx8qx_b0/soc/MX8QX/soc.o
 .bss.soc_rm_idx_ocmem
                0x000000002001072a        0x6 build_mx8qx_b0/soc/MX8QX/soc.o
 .bss.soc_sys_if_node
                0x0000000020010730       0x40 build_mx8qx_b0/soc/MX8QX/soc.o
 .bss.soc_sys_if_req
                0x0000000020010770       0x18 build_mx8qx_b0/soc/MX8QX/soc.o
                0x0000000020010770                soc_sys_if_req
 .bss.valid_bit
                0x0000000020010788        0x4 build_mx8qx_b0/soc/MX8QX/soc.o
 .bss.vpu_srut1
                0x000000002001078c        0x4 build_mx8qx_b0/soc/MX8QX/soc.o
 .bss.vpu_srut2
                0x0000000020010790        0x4 build_mx8qx_b0/soc/MX8QX/soc.o
 .bss.soc_ddr_ret_info
                0x0000000020010794        0x4 build_mx8qx_b0/soc/common/soc_common.o
 .bss.ss.11569  0x0000000020010798        0x1 build_mx8qx_b0/soc/common/soc_common.o
 *fill*         0x0000000020010799        0x3 
 .bss.osc_conf  0x000000002001079c        0x8 build_mx8qx_b0/drivers/analog/fsl_analog.o
 .bss.root_conf
                0x00000000200107a4        0x8 build_mx8qx_b0/drivers/analog/fsl_analog.o
 .bss.rptr_conf
                0x00000000200107ac       0x10 build_mx8qx_b0/drivers/analog/fsl_analog.o
 .bss.term_conf
                0x00000000200107bc        0xc build_mx8qx_b0/drivers/analog/fsl_analog.o
 .bss.gPac_info
                0x00000000200107c8        0x4 build_mx8qx_b0/drivers/xrdc2/fsl_xrdc2.o
                0x00000000200107c8                gPac_info
 .bss.gPac_num  0x00000000200107cc        0x2 build_mx8qx_b0/drivers/xrdc2/fsl_xrdc2.o
                0x00000000200107cc                gPac_num
 .bss.aborted   0x00000000200107ce        0x1 build_mx8qx_b0/drivers/seco/v2/fsl_seco.o
 .bss.async     0x00000000200107cf        0x1 build_mx8qx_b0/drivers/seco/v2/fsl_seco.o
 .bss.busy.11265
                0x00000000200107d0        0x1 build_mx8qx_b0/drivers/seco/v2/fsl_seco.o
 *fill*         0x00000000200107d1        0x3 
 .bss.caam_ls.11288
                0x00000000200107d4       0x10 build_mx8qx_b0/drivers/seco/v2/fsl_seco.o
 .bss.caam_ls_cache
                0x00000000200107e4       0x10 build_mx8qx_b0/drivers/seco/v2/fsl_seco.o
 .bss.caam_ms.11287
                0x00000000200107f4       0x10 build_mx8qx_b0/drivers/seco/v2/fsl_seco.o
 .bss.caam_ms_cache
                0x0000000020010804       0x10 build_mx8qx_b0/drivers/seco/v2/fsl_seco.o
 .bss.msg_max   0x0000000020010814       0x58 build_mx8qx_b0/drivers/seco/v2/fsl_seco.o
 .bss.seco_errno
                0x000000002001086c        0x4 build_mx8qx_b0/drivers/seco/v2/fsl_seco.o
 .bss.word2_cache.11359
                0x0000000020010870        0x4 build_mx8qx_b0/drivers/seco/v2/fsl_seco.o
 .bss.word3_cache.11360
                0x0000000020010874        0x4 build_mx8qx_b0/drivers/seco/v2/fsl_seco.o
 .bss.btnCfg    0x0000000020010878        0x1 build_mx8qx_b0/drivers/snvs/v2/fsl_snvs.o
 .bss.btnEnable
                0x0000000020010879        0x1 build_mx8qx_b0/drivers/snvs/v2/fsl_snvs.o
 .bss.init_done.10577
                0x000000002001087a        0x1 build_mx8qx_b0/drivers/snvs/v2/fsl_snvs.o
 *fill*         0x000000002001087b        0x1 
 .bss.switching_range
                0x000000002001087c       0x10 build_mx8qx_b0/drivers/pmic/pf100/fsl_pf100.o
 .bss.sc_ss_data
                0x000000002001088c     0x17a4 build_mx8qx_b0/ss/inf/inf.o
                0x000000002001088c                sc_ss_data
 .bss.asyncMsg  0x0000000020012030       0x28 build_mx8qx_b0/ss/sc/v2/ss.o
 .bss.jr_did    0x0000000020012058        0x6 build_mx8qx_b0/ss/sc/v2/ss.o
 *fill*         0x000000002001205e        0x2 
 .bss.mda_cache
                0x0000000020012060       0x90 build_mx8qx_b0/ss/sc/v2/ss.o
 .bss.mrc_cache
                0x00000000200120f0       0x70 build_mx8qx_b0/ss/sc/v2/ss.o
 .bss.dma_up_down
                0x0000000020012160        0x1 build_mx8qx_b0/ss/adma/v2/ss.o
                0x0000000020012160                dma_up_down
 *fill*         0x0000000020012161        0x3 
 .bss.mda_cache
                0x0000000020012164      0x390 build_mx8qx_b0/ss/adma/v2/ss.o
 .bss.mda_cache
                0x00000000200124f4       0xd0 build_mx8qx_b0/ss/vpu/v4/ss.o
 .bss.asyncMsg  0x00000000200125c4       0xc8 build_mx8qx_b0/ss/lsio/v2/ss.o
 .bss.irq_mask  0x000000002001268c       0x64 build_mx8qx_b0/ss/lsio/v2/ss.o
 .bss.irq_pending
                0x00000000200126f0       0x64 build_mx8qx_b0/ss/lsio/v2/ss.o
 .bss.mrc_cache
                0x0000000020012754      0x540 build_mx8qx_b0/ss/lsio/v2/ss.o
 .bss.mda_cache
                0x0000000020012c94       0x28 build_mx8qx_b0/ss/a35/v1/ss.o
 .bss.base_reboot
                0x0000000020012cbc        0x1 build_mx8qx_b0/ss/base/ss.o
                0x0000000020012cbc                base_reboot
 .bss.boot_rsrc_found
                0x0000000020012cbd        0x1 build_mx8qx_b0/ss/base/ss.o
 .bss.boot_ss   0x0000000020012cbe        0x1 build_mx8qx_b0/ss/base/ss.o
 .bss.boot_ss_idx
                0x0000000020012cbf        0x1 build_mx8qx_b0/ss/base/ss.o
 .bss.xrdc_enable
                0x0000000020012cc0        0x1 build_mx8qx_b0/ss/base/ss.o
                0x0000000020012cc0                xrdc_enable
 *fill*         0x0000000020012cc1        0x3 
 .bss.mda_cache
                0x0000000020012cc4      0x100 build_mx8qx_b0/ss/conn/v1/ss.o
 .bss.mrc_cache
                0x0000000020012dc4      0xa80 build_mx8qx_b0/ss/db/v2/ss.o
 .bss.ss_up     0x0000000020013844        0x1 build_mx8qx_b0/ss/db/v2/ss.o
 *fill*         0x0000000020013845        0x3 
 .bss.mda_cache
                0x0000000020013848      0x100 build_mx8qx_b0/ss/dc/v1/ss.o
 .bss.freq_hw_limited
                0x0000000020013948        0x1 build_mx8qx_b0/ss/gpu/v2/ss.o
 *fill*         0x0000000020013949        0x3 
 .bss.max_gpu_freq
                0x000000002001394c        0x4 build_mx8qx_b0/ss/gpu/v2/ss.o
 .bss.mda_cache
                0x0000000020013950       0x40 build_mx8qx_b0/ss/gpu/v2/ss.o
 .bss.match_values
                0x0000000020013990       0x3a build_mx8qx_b0/ss/hsio/v2/ss.o
 *fill*         0x00000000200139ca        0x2 
 .bss.mda_cache
                0x00000000200139cc      0x100 build_mx8qx_b0/ss/hsio/v2/ss.o
 .bss.mrc_cache
                0x0000000020013acc      0x380 build_mx8qx_b0/ss/hsio/v2/ss.o
 .bss.pcie_internal_clk
                0x0000000020013e4c        0x1 build_mx8qx_b0/ss/hsio/v2/ss.o
 *fill*         0x0000000020013e4d        0x3 
 .bss.mda_cache
                0x0000000020013e50       0x80 build_mx8qx_b0/ss/img/v1/ss.o
 .bss.asyncMsg  0x0000000020013ed0       0x50 build_mx8qx_b0/ss/m4/v1/ss.o
 .bss.irq_mask  0x0000000020013f20       0x28 build_mx8qx_b0/ss/m4/v1/ss.o
 .bss.irq_pending
                0x0000000020013f48       0x28 build_mx8qx_b0/ss/m4/v1/ss.o
 .bss.mda_cache
                0x0000000020013f70      0x100 build_mx8qx_b0/ss/m4/v1/ss.o
 .bss.mrc_cache
                0x0000000020014070       0xe0 build_mx8qx_b0/ss/m4/v1/ss.o
 .bss.ss_lp_info_m4_0
                0x0000000020014150       0x18 build_mx8qx_b0/ss/m4/v1/ss.o
 .bss.board_ddr_ret_buf1.11947
                0x0000000020014168      0x100 build_mx8qx_b0/board/mx8qx_mek/board.o
 .bss.board_ddr_ret_buf2.11948
                0x0000000020014268       0x40 build_mx8qx_b0/board/mx8qx_mek/board.o
 .bss.board_ddr_ret_buf3.11949
                0x00000000200142a8       0xc0 build_mx8qx_b0/board/mx8qx_mek/board.o
 .bss.board_ddr_ret_drc_inst.11945
                0x0000000020014368       0xe0 build_mx8qx_b0/board/mx8qx_mek/board.o
 .bss.board_ddr_ret_drc_phy_inst.11946
                0x0000000020014448      0x178 build_mx8qx_b0/board/mx8qx_mek/board.o
 .bss.lpi2c_masterConfig.12121
                0x00000000200145c0       0x1c build_mx8qx_b0/board/mx8qx_mek/board.o
 .bss.pmic_checked.12120
                0x00000000200145dc        0x1 build_mx8qx_b0/board/mx8qx_mek/board.o
 .bss.pmic_ver  0x00000000200145dd        0x2 build_mx8qx_b0/board/mx8qx_mek/board.o
 *fill*         0x00000000200145df        0x1 
 .bss.temp_alarm
                0x00000000200145e0        0x4 build_mx8qx_b0/board/mx8qx_mek/board.o
 .bss.ddr_mseconds.10393
                0x00000000200145e4        0x4 build_mx8qx_b0/board/board_common.o
 .bss.ddr_tick_enable
                0x00000000200145e8        0x1 build_mx8qx_b0/board/board_common.o
 .bss.has_test  0x00000000200145e9        0x1 build_mx8qx_b0/board/board_common.o
                0x00000000200145e9                has_test
 .bss.PMIC_TYPE
                0x00000000200145ea        0x1 build_mx8qx_b0/board/pmic.o
                0x00000000200145ea                PMIC_TYPE
 .bss.cpu_wait  0x00000000200145eb        0x2 build_mx8qx_b0/svc/misc/svc.o
 .bss.misc_part_data
                0x00000000200145ed       0x14 build_mx8qx_b0/svc/misc/svc.o
 *fill*         0x0000000020014601        0x7 
 .bss.pm_part_data
                0x0000000020014608      0x140 build_mx8qx_b0/svc/pm/svc.o
 .bss.pm_rsrc_data
                0x0000000020014748      0x182 build_mx8qx_b0/svc/pm/svc.o
 .bss.blocking  0x00000000200148ca        0x1 build_mx8qx_b0/svc/rm/svc.o
 .bss.did_used  0x00000000200148cb       0x10 build_mx8qx_b0/svc/rm/svc.o
 .bss.dynamic_did_first
                0x00000000200148db        0x1 build_mx8qx_b0/svc/rm/svc.o
 .bss.dynamic_pt_first
                0x00000000200148dc        0x1 build_mx8qx_b0/svc/rm/svc.o
 *fill*         0x00000000200148dd        0x3 
 .bss.rm_mreg_data
                0x00000000200148e0      0x600 build_mx8qx_b0/svc/rm/svc.o
 .bss.rm_pad_data
                0x0000000020014ee0       0xae build_mx8qx_b0/svc/rm/svc.o
 .bss.rm_part_data
                0x0000000020014f8e       0x28 build_mx8qx_b0/svc/rm/svc.o
 .bss.rm_rsrc_data
                0x0000000020014fb6     0x151c build_mx8qx_b0/svc/rm/svc.o
 .bss.rm_rsrc_map_data
                0x00000000200164d2      0x444 build_mx8qx_b0/svc/rm/svc.o
 .bss.rm_ss_map_data
                0x0000000020016916       0x22 build_mx8qx_b0/svc/rm/svc.o
 .bss.timer_part_data
                0x0000000020016938      0x320 build_mx8qx_b0/svc/timer/svc.o
 .bss.__malloc_free_list
                0x0000000020016c58        0x4 /home/jalcim/gcc_toolchain/gcc-arm-none-eabi-7-2018-q2-update/bin/../lib/gcc/arm-none-eabi/7.3.1/../../../../arm-none-eabi/lib/thumb/v7e-m/fpv4-sp/softfp/libc_nano.a(lib_a-nano-mallocr.o)
                0x0000000020016c58                __malloc_free_list
 .bss.__malloc_sbrk_start
                0x0000000020016c5c        0x4 /home/jalcim/gcc_toolchain/gcc-arm-none-eabi-7-2018-q2-update/bin/../lib/gcc/arm-none-eabi/7.3.1/../../../../arm-none-eabi/lib/thumb/v7e-m/fpv4-sp/softfp/libc_nano.a(lib_a-nano-mallocr.o)
                0x0000000020016c5c                __malloc_sbrk_start
 *(COMMON)
 COMMON         0x0000000020016c60        0x4 /home/jalcim/gcc_toolchain/gcc-arm-none-eabi-7-2018-q2-update/bin/../lib/gcc/arm-none-eabi/7.3.1/../../../../arm-none-eabi/lib/thumb/v7e-m/fpv4-sp/softfp/libc_nano.a(lib_a-reent.o)
                0x0000000020016c60                errno
                0x0000000020016c80                . = ALIGN (0x40)
 *fill*         0x0000000020016c64       0x1c 
                0x0000000020016c80                __bss_end__ = .
                0x0000000020016c80                __END_BSS = .
                0x0000000020016c80                __FREE_TCM_START = .

.debug_data     0x000000002001cfc0       0x40
                0x000000002001cfc0                __FREE_TCM_END = .
                0x000000002001cfc0                __DEBUG_DATA = .
                0x000000002001d000                . = (. + DEBUG_DATA_SIZE)
 *fill*         0x000000002001cfc0       0x40 

.heap           0x000000002001d000     0x1000
                0x000000002001d000                . = ALIGN (0x40)
                0x000000002001d000                __end__ = .
                [!provide]                        PROVIDE (end = .)
                0x000000002001d000                __HeapBase = .
                0x000000002001e000                . = (. + HEAP_SIZE)
 *fill*         0x000000002001d000     0x1000 
                0x000000002001e000                __HeapLimit = .
                0x000000002001e000                . = ALIGN (0x40)

.guard          0x000000002001e000      0x800
                0x000000002001e000                . = ALIGN (GUARD_SIZE)
                0x000000002001e000                __GuardStart = .
                0x000000002001e800                . = (. + GUARD_SIZE)
 *fill*         0x000000002001e000      0x800 
                0x000000002001e800                __GuardLimit = .
                0x0000000000000014                __GuardSizeMpuField = ((GUARD_LOG2 - 0x1) << 0x1)

.stack          0x000000002001e800      0x800
                0x000000002001e800                . = ALIGN (0x40)
                0x000000002001f000                . = (. + STACK_SIZE)
 *fill*         0x000000002001e800      0x800 
                0x000000002001f000                . = ALIGN (0x40)
                0x000000002001f000                __StackTop = (ORIGIN (m_data_2) + LENGTH (m_data_2))
                0x000000002001e800                __StackLimit = (__StackTop - STACK_SIZE)
                [!provide]                        PROVIDE (__stack = __StackTop)
                0x0000000000006340                __FREE_TCM_BYTES = (__FREE_TCM_END - __FREE_TCM_START)
                0x00000000000018d0                __FREE_TCM_WORDS = (__FREE_TCM_BYTES >> 0x2)

/DISCARD/
 *(.interp)

.ARM.attributes
                0x0000000000000000       0x35
 *(.ARM.attributes)
 .ARM.attributes
                0x0000000000000000       0x35 build_mx8qx_b0/devices/startup.o
 .ARM.attributes
                0x0000000000000035       0x1f build_mx8qx_b0/devices/memops.o
 .ARM.attributes
                0x0000000000000054       0x35 build_mx8qx_b0/devices/MX8QX/system_MX8QX.o
 .ARM.attributes
                0x0000000000000089       0x35 build_mx8qx_b0/devices/MX8QX/handlers_MX8QX.o
 .ARM.attributes
                0x00000000000000be       0x1f build_mx8qx_b0/devices/MX8QX/gcc/startup_MX8QX.o
 .ARM.attributes
                0x00000000000000dd       0x35 build_mx8qx_b0/main/main.o
 .ARM.attributes
                0x0000000000000112       0x35 build_mx8qx_b0/main/main_common.o
 .ARM.attributes
                0x0000000000000147       0x35 build_mx8qx_b0/main/boot.o
 .ARM.attributes
                0x000000000000017c       0x35 build_mx8qx_b0/main/debug.o
 .ARM.attributes
                0x00000000000001b1       0x35 build_mx8qx_b0/main/rpc.o
 .ARM.attributes
                0x00000000000001e6       0x35 build_mx8qx_b0/main/ipc_srv.o
 .ARM.attributes
                0x000000000000021b       0x35 build_mx8qx_b0/main/monitor.o
 .ARM.attributes
                0x0000000000000250       0x35 build_mx8qx_b0/utilities/newlib_stubs.o
 .ARM.attributes
                0x0000000000000285       0x35 build_mx8qx_b0/soc/MX8QX/soc.o
 .ARM.attributes
                0x00000000000002ba       0x35 build_mx8qx_b0/soc/common/soc_common.o
 .ARM.attributes
                0x00000000000002ef       0x35 build_mx8qx_b0/drivers/analog/fsl_analog.o
 .ARM.attributes
                0x0000000000000324       0x35 build_mx8qx_b0/drivers/analog/fsl_analog_refgen.o
 .ARM.attributes
                0x0000000000000359       0x35 build_mx8qx_b0/drivers/csr/fsl_csr.o
 .ARM.attributes
                0x000000000000038e       0x35 build_mx8qx_b0/drivers/dsc/fsl_dsc.o
 .ARM.attributes
                0x00000000000003c3       0x35 build_mx8qx_b0/drivers/dsc/fsl_dsc_ai.o
 .ARM.attributes
                0x00000000000003f8       0x35 build_mx8qx_b0/drivers/pad/fsl_pad.o
 .ARM.attributes
                0x000000000000042d       0x35 build_mx8qx_b0/drivers/sysctr/fsl_sysctr.o
 .ARM.attributes
                0x0000000000000462       0x35 build_mx8qx_b0/drivers/xrdc2/fsl_xrdc2.o
 .ARM.attributes
                0x0000000000000497       0x35 build_mx8qx_b0/drivers/mtr/fsl_mtr.o
 .ARM.attributes
                0x00000000000004cc       0x35 build_mx8qx_b0/drivers/seco/v2/fsl_seco.o
 .ARM.attributes
                0x0000000000000501       0x35 build_mx8qx_b0/drivers/lpi2c/fsl_lpi2c.o
 .ARM.attributes
                0x0000000000000536       0x35 build_mx8qx_b0/drivers/lpit/fsl_lpit.o
 .ARM.attributes
                0x000000000000056b       0x35 build_mx8qx_b0/drivers/lpcg/fsl_lpcg.o
 .ARM.attributes
                0x00000000000005a0       0x35 build_mx8qx_b0/drivers/lpuart/fsl_lpuart.o
 .ARM.attributes
                0x00000000000005d5       0x35 build_mx8qx_b0/drivers/mu/fsl_mu.o
 .ARM.attributes
                0x000000000000060a       0x35 build_mx8qx_b0/drivers/otp/fsl_otp.o
 .ARM.attributes
                0x000000000000063f       0x35 build_mx8qx_b0/drivers/stc/fsl_stc.o
 .ARM.attributes
                0x0000000000000674       0x35 build_mx8qx_b0/drivers/systick/fsl_systick.o
 .ARM.attributes
                0x00000000000006a9       0x35 build_mx8qx_b0/drivers/drc/fsl_drc.o
 .ARM.attributes
                0x00000000000006de       0x35 build_mx8qx_b0/drivers/snvs/v2/fsl_snvs.o
 .ARM.attributes
                0x0000000000000713       0x35 build_mx8qx_b0/drivers/pmic/fsl_pmic.o
 .ARM.attributes
                0x0000000000000748       0x35 build_mx8qx_b0/drivers/pmic/pf8100/fsl_pf8100.o
 .ARM.attributes
                0x000000000000077d       0x35 build_mx8qx_b0/drivers/pmic/pf100/fsl_pf100.o
 .ARM.attributes
                0x00000000000007b2       0x35 build_mx8qx_b0/ss/inf/inf.o
 .ARM.attributes
                0x00000000000007e7       0x35 build_mx8qx_b0/ss/sc/v2/ss.o
 .ARM.attributes
                0x000000000000081c       0x35 build_mx8qx_b0/ss/adma/v2/ss.o
 .ARM.attributes
                0x0000000000000851       0x35 build_mx8qx_b0/ss/vpu/v4/ss.o
 .ARM.attributes
                0x0000000000000886       0x35 build_mx8qx_b0/ss/lsio/v2/ss.o
 .ARM.attributes
                0x00000000000008bb       0x35 build_mx8qx_b0/ss/a35/v1/ss.o
 .ARM.attributes
                0x00000000000008f0       0x35 build_mx8qx_b0/ss/base/ss.o
 .ARM.attributes
                0x0000000000000925       0x35 build_mx8qx_b0/ss/conn/v1/ss.o
 .ARM.attributes
                0x000000000000095a       0x35 build_mx8qx_b0/ss/csi/v1/ss.o
 .ARM.attributes
                0x000000000000098f       0x35 build_mx8qx_b0/ss/db/v2/ss.o
 .ARM.attributes
                0x00000000000009c4       0x35 build_mx8qx_b0/ss/dc/v1/ss.o
 .ARM.attributes
                0x00000000000009f9       0x35 build_mx8qx_b0/ss/drc/v2/ss.o
 .ARM.attributes
                0x0000000000000a2e       0x35 build_mx8qx_b0/ss/gpu/v2/ss.o
 .ARM.attributes
                0x0000000000000a63       0x35 build_mx8qx_b0/ss/hsio/v2/ss.o
 .ARM.attributes
                0x0000000000000a98       0x35 build_mx8qx_b0/ss/img/v1/ss.o
 .ARM.attributes
                0x0000000000000acd       0x35 build_mx8qx_b0/ss/m4/v1/ss.o
 .ARM.attributes
                0x0000000000000b02       0x35 build_mx8qx_b0/ss/mipi/v2/ss.o
 .ARM.attributes
                0x0000000000000b37       0x35 build_mx8qx_b0/ss/pi/v1/ss.o
 .ARM.attributes
                0x0000000000000b6c       0x35 build_mx8qx_b0/board/mx8qx_mek/board.o
 .ARM.attributes
                0x0000000000000ba1       0x35 build_mx8qx_b0/board/board_common.o
 .ARM.attributes
                0x0000000000000bd6       0x1f build_mx8qx_b0/board/board.o
 .ARM.attributes
                0x0000000000000bf5       0x35 build_mx8qx_b0/board/pmic.o
 .ARM.attributes
                0x0000000000000c2a       0x35 build_mx8qx_b0/svc/irq/svc.o
 .ARM.attributes
                0x0000000000000c5f       0x35 build_mx8qx_b0/svc/misc/svc.o
 .ARM.attributes
                0x0000000000000c94       0x35 build_mx8qx_b0/svc/pad/svc.o
 .ARM.attributes
                0x0000000000000cc9       0x35 build_mx8qx_b0/svc/pm/svc.o
 .ARM.attributes
                0x0000000000000cfe       0x35 build_mx8qx_b0/svc/rm/svc.o
 .ARM.attributes
                0x0000000000000d33       0x35 build_mx8qx_b0/svc/timer/svc.o
 .ARM.attributes
                0x0000000000000d68       0x35 build_mx8qx_b0/svc/irq/rpc_srv.o
 .ARM.attributes
                0x0000000000000d9d       0x35 build_mx8qx_b0/svc/misc/rpc_srv.o
 .ARM.attributes
                0x0000000000000dd2       0x35 build_mx8qx_b0/svc/pad/rpc_srv.o
 .ARM.attributes
                0x0000000000000e07       0x35 build_mx8qx_b0/svc/pm/rpc_srv.o
 .ARM.attributes
                0x0000000000000e3c       0x35 build_mx8qx_b0/svc/rm/rpc_srv.o
 .ARM.attributes
                0x0000000000000e71       0x35 build_mx8qx_b0/svc/timer/rpc_srv.o
 .ARM.attributes
                0x0000000000000ea6       0x32 /home/jalcim/gcc_toolchain/gcc-arm-none-eabi-7-2018-q2-update/bin/../lib/gcc/arm-none-eabi/7.3.1/../../../../arm-none-eabi/lib/thumb/v7e-m/fpv4-sp/softfp/libc_nano.a(lib_a-assert.o)
 .ARM.attributes
                0x0000000000000ed8       0x32 /home/jalcim/gcc_toolchain/gcc-arm-none-eabi-7-2018-q2-update/bin/../lib/gcc/arm-none-eabi/7.3.1/../../../../arm-none-eabi/lib/thumb/v7e-m/fpv4-sp/softfp/libc_nano.a(lib_a-errno.o)
 .ARM.attributes
                0x0000000000000f0a       0x32 /home/jalcim/gcc_toolchain/gcc-arm-none-eabi-7-2018-q2-update/bin/../lib/gcc/arm-none-eabi/7.3.1/../../../../arm-none-eabi/lib/thumb/v7e-m/fpv4-sp/softfp/libc_nano.a(lib_a-exit.o)
 .ARM.attributes
                0x0000000000000f3c       0x32 /home/jalcim/gcc_toolchain/gcc-arm-none-eabi-7-2018-q2-update/bin/../lib/gcc/arm-none-eabi/7.3.1/../../../../arm-none-eabi/lib/thumb/v7e-m/fpv4-sp/softfp/libc_nano.a(lib_a-fgets.o)
 .ARM.attributes
                0x0000000000000f6e       0x32 /home/jalcim/gcc_toolchain/gcc-arm-none-eabi-7-2018-q2-update/bin/../lib/gcc/arm-none-eabi/7.3.1/../../../../arm-none-eabi/lib/thumb/v7e-m/fpv4-sp/softfp/libc_nano.a(lib_a-findfp.o)
 .ARM.attributes
                0x0000000000000fa0       0x32 /home/jalcim/gcc_toolchain/gcc-arm-none-eabi-7-2018-q2-update/bin/../lib/gcc/arm-none-eabi/7.3.1/../../../../arm-none-eabi/lib/thumb/v7e-m/fpv4-sp/softfp/libc_nano.a(lib_a-fprintf.o)
 .ARM.attributes
                0x0000000000000fd2       0x32 /home/jalcim/gcc_toolchain/gcc-arm-none-eabi-7-2018-q2-update/bin/../lib/gcc/arm-none-eabi/7.3.1/../../../../arm-none-eabi/lib/thumb/v7e-m/fpv4-sp/softfp/libc_nano.a(lib_a-fwalk.o)
 .ARM.attributes
                0x0000000000001004       0x32 /home/jalcim/gcc_toolchain/gcc-arm-none-eabi-7-2018-q2-update/bin/../lib/gcc/arm-none-eabi/7.3.1/../../../../arm-none-eabi/lib/thumb/v7e-m/fpv4-sp/softfp/libc_nano.a(lib_a-impure.o)
 .ARM.attributes
                0x0000000000001036       0x32 /home/jalcim/gcc_toolchain/gcc-arm-none-eabi-7-2018-q2-update/bin/../lib/gcc/arm-none-eabi/7.3.1/../../../../arm-none-eabi/lib/thumb/v7e-m/fpv4-sp/softfp/libc_nano.a(lib_a-init.o)
 .ARM.attributes
                0x0000000000001068       0x20 /home/jalcim/gcc_toolchain/gcc-arm-none-eabi-7-2018-q2-update/bin/../lib/gcc/arm-none-eabi/7.3.1/../../../../arm-none-eabi/lib/thumb/v7e-m/fpv4-sp/softfp/libc_nano.a(lib_a-memchr.o)
 .ARM.attributes
                0x0000000000001088       0x32 /home/jalcim/gcc_toolchain/gcc-arm-none-eabi-7-2018-q2-update/bin/../lib/gcc/arm-none-eabi/7.3.1/../../../../arm-none-eabi/lib/thumb/v7e-m/fpv4-sp/softfp/libc_nano.a(lib_a-memcpy-stub.o)
 .ARM.attributes
                0x00000000000010ba       0x32 /home/jalcim/gcc_toolchain/gcc-arm-none-eabi-7-2018-q2-update/bin/../lib/gcc/arm-none-eabi/7.3.1/../../../../arm-none-eabi/lib/thumb/v7e-m/fpv4-sp/softfp/libc_nano.a(lib_a-memset.o)
 .ARM.attributes
                0x00000000000010ec       0x32 /home/jalcim/gcc_toolchain/gcc-arm-none-eabi-7-2018-q2-update/bin/../lib/gcc/arm-none-eabi/7.3.1/../../../../arm-none-eabi/lib/thumb/v7e-m/fpv4-sp/softfp/libc_nano.a(lib_a-nano-mallocr.o)
 .ARM.attributes
                0x000000000000111e       0x32 /home/jalcim/gcc_toolchain/gcc-arm-none-eabi-7-2018-q2-update/bin/../lib/gcc/arm-none-eabi/7.3.1/../../../../arm-none-eabi/lib/thumb/v7e-m/fpv4-sp/softfp/libc_nano.a(lib_a-nano-vfprintf.o)
 .ARM.attributes
                0x0000000000001150       0x32 /home/jalcim/gcc_toolchain/gcc-arm-none-eabi-7-2018-q2-update/bin/../lib/gcc/arm-none-eabi/7.3.1/../../../../arm-none-eabi/lib/thumb/v7e-m/fpv4-sp/softfp/libc_nano.a(lib_a-nano-vfprintf_i.o)
 .ARM.attributes
                0x0000000000001182       0x32 /home/jalcim/gcc_toolchain/gcc-arm-none-eabi-7-2018-q2-update/bin/../lib/gcc/arm-none-eabi/7.3.1/../../../../arm-none-eabi/lib/thumb/v7e-m/fpv4-sp/softfp/libc_nano.a(lib_a-reent.o)
 .ARM.attributes
                0x00000000000011b4       0x32 /home/jalcim/gcc_toolchain/gcc-arm-none-eabi-7-2018-q2-update/bin/../lib/gcc/arm-none-eabi/7.3.1/../../../../arm-none-eabi/lib/thumb/v7e-m/fpv4-sp/softfp/libc_nano.a(lib_a-refill.o)
 .ARM.attributes
                0x00000000000011e6       0x32 /home/jalcim/gcc_toolchain/gcc-arm-none-eabi-7-2018-q2-update/bin/../lib/gcc/arm-none-eabi/7.3.1/../../../../arm-none-eabi/lib/thumb/v7e-m/fpv4-sp/softfp/libc_nano.a(lib_a-sbrkr.o)
 .ARM.attributes
                0x0000000000001218       0x32 /home/jalcim/gcc_toolchain/gcc-arm-none-eabi-7-2018-q2-update/bin/../lib/gcc/arm-none-eabi/7.3.1/../../../../arm-none-eabi/lib/thumb/v7e-m/fpv4-sp/softfp/libc_nano.a(lib_a-setvbuf.o)
 .ARM.attributes
                0x000000000000124a       0x32 /home/jalcim/gcc_toolchain/gcc-arm-none-eabi-7-2018-q2-update/bin/../lib/gcc/arm-none-eabi/7.3.1/../../../../arm-none-eabi/lib/thumb/v7e-m/fpv4-sp/softfp/libc_nano.a(lib_a-stdio.o)
 .ARM.attributes
                0x000000000000127c       0x32 /home/jalcim/gcc_toolchain/gcc-arm-none-eabi-7-2018-q2-update/bin/../lib/gcc/arm-none-eabi/7.3.1/../../../../arm-none-eabi/lib/thumb/v7e-m/fpv4-sp/softfp/libc_nano.a(lib_a-strcasecmp.o)
 .ARM.attributes
                0x00000000000012ae       0x1b /home/jalcim/gcc_toolchain/gcc-arm-none-eabi-7-2018-q2-update/bin/../lib/gcc/arm-none-eabi/7.3.1/../../../../arm-none-eabi/lib/thumb/v7e-m/fpv4-sp/softfp/libc_nano.a(lib_a-strlen.o)
 .ARM.attributes
                0x00000000000012c9       0x32 /home/jalcim/gcc_toolchain/gcc-arm-none-eabi-7-2018-q2-update/bin/../lib/gcc/arm-none-eabi/7.3.1/../../../../arm-none-eabi/lib/thumb/v7e-m/fpv4-sp/softfp/libc_nano.a(lib_a-strncasecmp.o)
 .ARM.attributes
                0x00000000000012fb       0x32 /home/jalcim/gcc_toolchain/gcc-arm-none-eabi-7-2018-q2-update/bin/../lib/gcc/arm-none-eabi/7.3.1/../../../../arm-none-eabi/lib/thumb/v7e-m/fpv4-sp/softfp/libc_nano.a(lib_a-strtoul.o)
 .ARM.attributes
                0x000000000000132d       0x32 /home/jalcim/gcc_toolchain/gcc-arm-none-eabi-7-2018-q2-update/bin/../lib/gcc/arm-none-eabi/7.3.1/../../../../arm-none-eabi/lib/thumb/v7e-m/fpv4-sp/softfp/libc_nano.a(lib_a-strtoull.o)
 .ARM.attributes
                0x000000000000135f       0x32 /home/jalcim/gcc_toolchain/gcc-arm-none-eabi-7-2018-q2-update/bin/../lib/gcc/arm-none-eabi/7.3.1/../../../../arm-none-eabi/lib/thumb/v7e-m/fpv4-sp/softfp/libc_nano.a(lib_a-wbuf.o)
 .ARM.attributes
                0x0000000000001391       0x32 /home/jalcim/gcc_toolchain/gcc-arm-none-eabi-7-2018-q2-update/bin/../lib/gcc/arm-none-eabi/7.3.1/../../../../arm-none-eabi/lib/thumb/v7e-m/fpv4-sp/softfp/libc_nano.a(lib_a-writer.o)
 .ARM.attributes
                0x00000000000013c3       0x32 /home/jalcim/gcc_toolchain/gcc-arm-none-eabi-7-2018-q2-update/bin/../lib/gcc/arm-none-eabi/7.3.1/../../../../arm-none-eabi/lib/thumb/v7e-m/fpv4-sp/softfp/libc_nano.a(lib_a-wsetup.o)
 .ARM.attributes
                0x00000000000013f5       0x32 /home/jalcim/gcc_toolchain/gcc-arm-none-eabi-7-2018-q2-update/bin/../lib/gcc/arm-none-eabi/7.3.1/../../../../arm-none-eabi/lib/thumb/v7e-m/fpv4-sp/softfp/libc_nano.a(lib_a-abort.o)
 .ARM.attributes
                0x0000000000001427       0x32 /home/jalcim/gcc_toolchain/gcc-arm-none-eabi-7-2018-q2-update/bin/../lib/gcc/arm-none-eabi/7.3.1/../../../../arm-none-eabi/lib/thumb/v7e-m/fpv4-sp/softfp/libc_nano.a(lib_a-closer.o)
 .ARM.attributes
                0x0000000000001459       0x32 /home/jalcim/gcc_toolchain/gcc-arm-none-eabi-7-2018-q2-update/bin/../lib/gcc/arm-none-eabi/7.3.1/../../../../arm-none-eabi/lib/thumb/v7e-m/fpv4-sp/softfp/libc_nano.a(lib_a-fflush.o)
 .ARM.attributes
                0x000000000000148b       0x32 /home/jalcim/gcc_toolchain/gcc-arm-none-eabi-7-2018-q2-update/bin/../lib/gcc/arm-none-eabi/7.3.1/../../../../arm-none-eabi/lib/thumb/v7e-m/fpv4-sp/softfp/libc_nano.a(lib_a-locale.o)
 .ARM.attributes
                0x00000000000014bd       0x32 /home/jalcim/gcc_toolchain/gcc-arm-none-eabi-7-2018-q2-update/bin/../lib/gcc/arm-none-eabi/7.3.1/../../../../arm-none-eabi/lib/thumb/v7e-m/fpv4-sp/softfp/libc_nano.a(lib_a-lseekr.o)
 .ARM.attributes
                0x00000000000014ef       0x32 /home/jalcim/gcc_toolchain/gcc-arm-none-eabi-7-2018-q2-update/bin/../lib/gcc/arm-none-eabi/7.3.1/../../../../arm-none-eabi/lib/thumb/v7e-m/fpv4-sp/softfp/libc_nano.a(lib_a-makebuf.o)
 .ARM.attributes
                0x0000000000001521       0x32 /home/jalcim/gcc_toolchain/gcc-arm-none-eabi-7-2018-q2-update/bin/../lib/gcc/arm-none-eabi/7.3.1/../../../../arm-none-eabi/lib/thumb/v7e-m/fpv4-sp/softfp/libc_nano.a(lib_a-malloc.o)
 .ARM.attributes
                0x0000000000001553       0x32 /home/jalcim/gcc_toolchain/gcc-arm-none-eabi-7-2018-q2-update/bin/../lib/gcc/arm-none-eabi/7.3.1/../../../../arm-none-eabi/lib/thumb/v7e-m/fpv4-sp/softfp/libc_nano.a(lib_a-mbtowc_r.o)
 .ARM.attributes
                0x0000000000001585       0x32 /home/jalcim/gcc_toolchain/gcc-arm-none-eabi-7-2018-q2-update/bin/../lib/gcc/arm-none-eabi/7.3.1/../../../../arm-none-eabi/lib/thumb/v7e-m/fpv4-sp/softfp/libc_nano.a(lib_a-mlock.o)
 .ARM.attributes
                0x00000000000015b7       0x32 /home/jalcim/gcc_toolchain/gcc-arm-none-eabi-7-2018-q2-update/bin/../lib/gcc/arm-none-eabi/7.3.1/../../../../arm-none-eabi/lib/thumb/v7e-m/fpv4-sp/softfp/libc_nano.a(lib_a-nano-freer.o)
 .ARM.attributes
                0x00000000000015e9       0x32 /home/jalcim/gcc_toolchain/gcc-arm-none-eabi-7-2018-q2-update/bin/../lib/gcc/arm-none-eabi/7.3.1/../../../../arm-none-eabi/lib/thumb/v7e-m/fpv4-sp/softfp/libc_nano.a(lib_a-readr.o)
 .ARM.attributes
                0x000000000000161b       0x32 /home/jalcim/gcc_toolchain/gcc-arm-none-eabi-7-2018-q2-update/bin/../lib/gcc/arm-none-eabi/7.3.1/../../../../arm-none-eabi/lib/thumb/v7e-m/fpv4-sp/softfp/libc_nano.a(lib_a-signal.o)
 .ARM.attributes
                0x000000000000164d       0x32 /home/jalcim/gcc_toolchain/gcc-arm-none-eabi-7-2018-q2-update/bin/../lib/gcc/arm-none-eabi/7.3.1/../../../../arm-none-eabi/lib/thumb/v7e-m/fpv4-sp/softfp/libc_nano.a(lib_a-signalr.o)
 .ARM.attributes
                0x000000000000167f       0x32 /home/jalcim/gcc_toolchain/gcc-arm-none-eabi-7-2018-q2-update/bin/../lib/gcc/arm-none-eabi/7.3.1/../../../../arm-none-eabi/lib/thumb/v7e-m/fpv4-sp/softfp/libc_nano.a(lib_a-wctomb_r.o)
 .ARM.attributes
                0x00000000000016b1       0x32 /home/jalcim/gcc_toolchain/gcc-arm-none-eabi-7-2018-q2-update/bin/../lib/gcc/arm-none-eabi/7.3.1/../../../../arm-none-eabi/lib/thumb/v7e-m/fpv4-sp/softfp/libc_nano.a(lib_a-ctype_.o)
 .ARM.attributes
                0x00000000000016e3       0x32 /home/jalcim/gcc_toolchain/gcc-arm-none-eabi-7-2018-q2-update/bin/../lib/gcc/arm-none-eabi/7.3.1/../../../../arm-none-eabi/lib/thumb/v7e-m/fpv4-sp/softfp/libc_nano.a(lib_a-fstatr.o)
 .ARM.attributes
                0x0000000000001715       0x32 /home/jalcim/gcc_toolchain/gcc-arm-none-eabi-7-2018-q2-update/bin/../lib/gcc/arm-none-eabi/7.3.1/../../../../arm-none-eabi/lib/thumb/v7e-m/fpv4-sp/softfp/libc_nano.a(lib_a-isattyr.o)
 .ARM.attributes
                0x0000000000001747       0x22 /home/jalcim/gcc_toolchain/gcc-arm-none-eabi-7-2018-q2-update/bin/../lib/gcc/arm-none-eabi/7.3.1/thumb/v7e-m/fpv4-sp/softfp/libgcc.a(_lshrdi3.o)
 .ARM.attributes
                0x0000000000001769       0x22 /home/jalcim/gcc_toolchain/gcc-arm-none-eabi-7-2018-q2-update/bin/../lib/gcc/arm-none-eabi/7.3.1/thumb/v7e-m/fpv4-sp/softfp/libgcc.a(_ashldi3.o)
 .ARM.attributes
                0x000000000000178b       0x22 /home/jalcim/gcc_toolchain/gcc-arm-none-eabi-7-2018-q2-update/bin/../lib/gcc/arm-none-eabi/7.3.1/thumb/v7e-m/fpv4-sp/softfp/libgcc.a(_aeabi_uldivmod.o)
 .ARM.attributes
                0x00000000000017ad       0x32 /home/jalcim/gcc_toolchain/gcc-arm-none-eabi-7-2018-q2-update/bin/../lib/gcc/arm-none-eabi/7.3.1/thumb/v7e-m/fpv4-sp/softfp/libgcc.a(_udivmoddi4.o)
 .ARM.attributes
                0x00000000000017df       0x22 /home/jalcim/gcc_toolchain/gcc-arm-none-eabi-7-2018-q2-update/bin/../lib/gcc/arm-none-eabi/7.3.1/thumb/v7e-m/fpv4-sp/softfp/libgcc.a(_dvmd_tls.o)
                0x0000000000000001                ASSERT ((__StackLimit >= __GuardLimit), region m_data_2 overflowed with stack and heap)
OUTPUT(build_mx8qx_b0/scfw_tcm.elf elf32-littlearm)

.debug_info     0x0000000000000000    0xcfb03
 .debug_info    0x0000000000000000      0xbb6 build_mx8qx_b0/devices/startup.o
 .debug_info    0x0000000000000bb6       0x8f build_mx8qx_b0/devices/memops.o
 .debug_info    0x0000000000000c45     0x4c42 build_mx8qx_b0/devices/MX8QX/system_MX8QX.o
 .debug_info    0x0000000000005887     0x4b04 build_mx8qx_b0/devices/MX8QX/handlers_MX8QX.o
 .debug_info    0x000000000000a38b       0x9c build_mx8qx_b0/devices/MX8QX/gcc/startup_MX8QX.o
 .debug_info    0x000000000000a427     0x3040 build_mx8qx_b0/main/main.o
 .debug_info    0x000000000000d467     0x47cb build_mx8qx_b0/main/main_common.o
 .debug_info    0x0000000000011c32     0x2a8b build_mx8qx_b0/main/boot.o
 .debug_info    0x00000000000146bd     0x1ea1 build_mx8qx_b0/main/debug.o
 .debug_info    0x000000000001655e     0x20d9 build_mx8qx_b0/main/rpc.o
 .debug_info    0x0000000000018637     0x26e5 build_mx8qx_b0/main/ipc_srv.o
 .debug_info    0x000000000001ad1c     0x57e3 build_mx8qx_b0/main/monitor.o
 .debug_info    0x00000000000204ff     0x33cc build_mx8qx_b0/utilities/newlib_stubs.o
 .debug_info    0x00000000000238cb     0x5f42 build_mx8qx_b0/soc/MX8QX/soc.o
 .debug_info    0x000000000002980d     0x4fa8 build_mx8qx_b0/soc/common/soc_common.o
 .debug_info    0x000000000002e7b5     0x2a7a build_mx8qx_b0/drivers/analog/fsl_analog.o
 .debug_info    0x000000000003122f     0x2582 build_mx8qx_b0/drivers/analog/fsl_analog_refgen.o
 .debug_info    0x00000000000337b1     0x2de0 build_mx8qx_b0/drivers/csr/fsl_csr.o
 .debug_info    0x0000000000036591     0x3d3f build_mx8qx_b0/drivers/dsc/fsl_dsc.o
 .debug_info    0x000000000003a2d0     0x4972 build_mx8qx_b0/drivers/dsc/fsl_dsc_ai.o
 .debug_info    0x000000000003ec42     0x2931 build_mx8qx_b0/drivers/pad/fsl_pad.o
 .debug_info    0x0000000000041573     0x2342 build_mx8qx_b0/drivers/sysctr/fsl_sysctr.o
 .debug_info    0x00000000000438b5     0x3d55 build_mx8qx_b0/drivers/xrdc2/fsl_xrdc2.o
 .debug_info    0x000000000004760a      0x9dd build_mx8qx_b0/drivers/mtr/fsl_mtr.o
 .debug_info    0x0000000000047fe7     0x3bdc build_mx8qx_b0/drivers/seco/v2/fsl_seco.o
 .debug_info    0x000000000004bbc3     0x385c build_mx8qx_b0/drivers/lpi2c/fsl_lpi2c.o
 .debug_info    0x000000000004f41f      0xe92 build_mx8qx_b0/drivers/lpit/fsl_lpit.o
 .debug_info    0x00000000000502b1     0x1f45 build_mx8qx_b0/drivers/lpcg/fsl_lpcg.o
 .debug_info    0x00000000000521f6     0x23a5 build_mx8qx_b0/drivers/lpuart/fsl_lpuart.o
 .debug_info    0x000000000005459b      0xc94 build_mx8qx_b0/drivers/mu/fsl_mu.o
 .debug_info    0x000000000005522f     0x29aa build_mx8qx_b0/drivers/otp/fsl_otp.o
 .debug_info    0x0000000000057bd9      0xc0d build_mx8qx_b0/drivers/stc/fsl_stc.o
 .debug_info    0x00000000000587e6     0x2029 build_mx8qx_b0/drivers/systick/fsl_systick.o
 .debug_info    0x000000000005a80f     0x3b4c build_mx8qx_b0/drivers/drc/fsl_drc.o
 .debug_info    0x000000000005e35b     0x29e5 build_mx8qx_b0/drivers/snvs/v2/fsl_snvs.o
 .debug_info    0x0000000000060d40     0x2ac4 build_mx8qx_b0/drivers/pmic/fsl_pmic.o
 .debug_info    0x0000000000063804     0x27d9 build_mx8qx_b0/drivers/pmic/pf8100/fsl_pf8100.o
 .debug_info    0x0000000000065fdd     0x26b7 build_mx8qx_b0/drivers/pmic/pf100/fsl_pf100.o
 .debug_info    0x0000000000068694     0x36f1 build_mx8qx_b0/ss/inf/inf.o
 .debug_info    0x000000000006bd85     0x3d47 build_mx8qx_b0/ss/sc/v2/ss.o
 .debug_info    0x000000000006facc     0x315e build_mx8qx_b0/ss/adma/v2/ss.o
 .debug_info    0x0000000000072c2a     0x21b3 build_mx8qx_b0/ss/vpu/v4/ss.o
 .debug_info    0x0000000000074ddd     0x3a19 build_mx8qx_b0/ss/lsio/v2/ss.o
 .debug_info    0x00000000000787f6     0x3fdd build_mx8qx_b0/ss/a35/v1/ss.o
 .debug_info    0x000000000007c7d3     0x8324 build_mx8qx_b0/ss/base/ss.o
 .debug_info    0x0000000000084af7     0x2ca0 build_mx8qx_b0/ss/conn/v1/ss.o
 .debug_info    0x0000000000087797     0x2fbc build_mx8qx_b0/ss/csi/v1/ss.o
 .debug_info    0x000000000008a753     0x2e9f build_mx8qx_b0/ss/db/v2/ss.o
 .debug_info    0x000000000008d5f2     0x2c30 build_mx8qx_b0/ss/dc/v1/ss.o
 .debug_info    0x0000000000090222     0x242d build_mx8qx_b0/ss/drc/v2/ss.o
 .debug_info    0x000000000009264f     0x2b9b build_mx8qx_b0/ss/gpu/v2/ss.o
 .debug_info    0x00000000000951ea     0x276a build_mx8qx_b0/ss/hsio/v2/ss.o
 .debug_info    0x0000000000097954     0x21b3 build_mx8qx_b0/ss/img/v1/ss.o
 .debug_info    0x0000000000099b07     0x4c13 build_mx8qx_b0/ss/m4/v1/ss.o
 .debug_info    0x000000000009e71a     0x31ac build_mx8qx_b0/ss/mipi/v2/ss.o
 .debug_info    0x00000000000a18c6     0x2120 build_mx8qx_b0/ss/pi/v1/ss.o
 .debug_info    0x00000000000a39e6     0x4e21 build_mx8qx_b0/board/mx8qx_mek/board.o
 .debug_info    0x00000000000a8807     0x2110 build_mx8qx_b0/board/board_common.o
 .debug_info    0x00000000000aa917       0x26 build_mx8qx_b0/board/board.o
 .debug_info    0x00000000000aa93d     0x2549 build_mx8qx_b0/board/pmic.o
 .debug_info    0x00000000000ace86     0x1fc4 build_mx8qx_b0/svc/irq/svc.o
 .debug_info    0x00000000000aee4a     0x3812 build_mx8qx_b0/svc/misc/svc.o
 .debug_info    0x00000000000b265c     0x3577 build_mx8qx_b0/svc/pad/svc.o
 .debug_info    0x00000000000b5bd3     0x3b59 build_mx8qx_b0/svc/pm/svc.o
 .debug_info    0x00000000000b972c     0x4e55 build_mx8qx_b0/svc/rm/svc.o
 .debug_info    0x00000000000be581     0x2cfc build_mx8qx_b0/svc/timer/svc.o
 .debug_info    0x00000000000c127d     0x207f build_mx8qx_b0/svc/irq/rpc_srv.o
 .debug_info    0x00000000000c32fc     0x29c7 build_mx8qx_b0/svc/misc/rpc_srv.o
 .debug_info    0x00000000000c5cc3     0x2763 build_mx8qx_b0/svc/pad/rpc_srv.o
 .debug_info    0x00000000000c8426     0x2775 build_mx8qx_b0/svc/pm/rpc_srv.o
 .debug_info    0x00000000000cab9b     0x29dc build_mx8qx_b0/svc/rm/rpc_srv.o
 .debug_info    0x00000000000cd577     0x258c build_mx8qx_b0/svc/timer/rpc_srv.o

.debug_abbrev   0x0000000000000000    0x10079
 .debug_abbrev  0x0000000000000000      0x223 build_mx8qx_b0/devices/startup.o
 .debug_abbrev  0x0000000000000223       0x14 build_mx8qx_b0/devices/memops.o
 .debug_abbrev  0x0000000000000237      0x53d build_mx8qx_b0/devices/MX8QX/system_MX8QX.o
 .debug_abbrev  0x0000000000000774      0x50f build_mx8qx_b0/devices/MX8QX/handlers_MX8QX.o
 .debug_abbrev  0x0000000000000c83       0x12 build_mx8qx_b0/devices/MX8QX/gcc/startup_MX8QX.o
 .debug_abbrev  0x0000000000000c95      0x409 build_mx8qx_b0/main/main.o
 .debug_abbrev  0x000000000000109e      0x495 build_mx8qx_b0/main/main_common.o
 .debug_abbrev  0x0000000000001533      0x3b2 build_mx8qx_b0/main/boot.o
 .debug_abbrev  0x00000000000018e5      0x29c build_mx8qx_b0/main/debug.o
 .debug_abbrev  0x0000000000001b81      0x2c4 build_mx8qx_b0/main/rpc.o
 .debug_abbrev  0x0000000000001e45      0x401 build_mx8qx_b0/main/ipc_srv.o
 .debug_abbrev  0x0000000000002246      0x4d7 build_mx8qx_b0/main/monitor.o
 .debug_abbrev  0x000000000000271d      0x4b7 build_mx8qx_b0/utilities/newlib_stubs.o
 .debug_abbrev  0x0000000000002bd4      0x51b build_mx8qx_b0/soc/MX8QX/soc.o
 .debug_abbrev  0x00000000000030ef      0x55c build_mx8qx_b0/soc/common/soc_common.o
 .debug_abbrev  0x000000000000364b      0x358 build_mx8qx_b0/drivers/analog/fsl_analog.o
 .debug_abbrev  0x00000000000039a3      0x31f build_mx8qx_b0/drivers/analog/fsl_analog_refgen.o
 .debug_abbrev  0x0000000000003cc2      0x2d0 build_mx8qx_b0/drivers/csr/fsl_csr.o
 .debug_abbrev  0x0000000000003f92      0x4a1 build_mx8qx_b0/drivers/dsc/fsl_dsc.o
 .debug_abbrev  0x0000000000004433      0x475 build_mx8qx_b0/drivers/dsc/fsl_dsc_ai.o
 .debug_abbrev  0x00000000000048a8      0x3ac build_mx8qx_b0/drivers/pad/fsl_pad.o
 .debug_abbrev  0x0000000000004c54      0x3e5 build_mx8qx_b0/drivers/sysctr/fsl_sysctr.o
 .debug_abbrev  0x0000000000005039      0x448 build_mx8qx_b0/drivers/xrdc2/fsl_xrdc2.o
 .debug_abbrev  0x0000000000005481      0x1e2 build_mx8qx_b0/drivers/mtr/fsl_mtr.o
 .debug_abbrev  0x0000000000005663      0x47b build_mx8qx_b0/drivers/seco/v2/fsl_seco.o
 .debug_abbrev  0x0000000000005ade      0x535 build_mx8qx_b0/drivers/lpi2c/fsl_lpi2c.o
 .debug_abbrev  0x0000000000006013      0x2f9 build_mx8qx_b0/drivers/lpit/fsl_lpit.o
 .debug_abbrev  0x000000000000630c      0x298 build_mx8qx_b0/drivers/lpcg/fsl_lpcg.o
 .debug_abbrev  0x00000000000065a4      0x4e6 build_mx8qx_b0/drivers/lpuart/fsl_lpuart.o
 .debug_abbrev  0x0000000000006a8a      0x2c3 build_mx8qx_b0/drivers/mu/fsl_mu.o
 .debug_abbrev  0x0000000000006d4d      0x48c build_mx8qx_b0/drivers/otp/fsl_otp.o
 .debug_abbrev  0x00000000000071d9      0x221 build_mx8qx_b0/drivers/stc/fsl_stc.o
 .debug_abbrev  0x00000000000073fa      0x2f3 build_mx8qx_b0/drivers/systick/fsl_systick.o
 .debug_abbrev  0x00000000000076ed      0x380 build_mx8qx_b0/drivers/drc/fsl_drc.o
 .debug_abbrev  0x0000000000007a6d      0x454 build_mx8qx_b0/drivers/snvs/v2/fsl_snvs.o
 .debug_abbrev  0x0000000000007ec1      0x44f build_mx8qx_b0/drivers/pmic/fsl_pmic.o
 .debug_abbrev  0x0000000000008310      0x374 build_mx8qx_b0/drivers/pmic/pf8100/fsl_pf8100.o
 .debug_abbrev  0x0000000000008684      0x369 build_mx8qx_b0/drivers/pmic/pf100/fsl_pf100.o
 .debug_abbrev  0x00000000000089ed      0x461 build_mx8qx_b0/ss/inf/inf.o
 .debug_abbrev  0x0000000000008e4e      0x473 build_mx8qx_b0/ss/sc/v2/ss.o
 .debug_abbrev  0x00000000000092c1      0x386 build_mx8qx_b0/ss/adma/v2/ss.o
 .debug_abbrev  0x0000000000009647      0x242 build_mx8qx_b0/ss/vpu/v4/ss.o
 .debug_abbrev  0x0000000000009889      0x3fb build_mx8qx_b0/ss/lsio/v2/ss.o
 .debug_abbrev  0x0000000000009c84      0x3ad build_mx8qx_b0/ss/a35/v1/ss.o
 .debug_abbrev  0x000000000000a031      0x5c9 build_mx8qx_b0/ss/base/ss.o
 .debug_abbrev  0x000000000000a5fa      0x37e build_mx8qx_b0/ss/conn/v1/ss.o
 .debug_abbrev  0x000000000000a978      0x2f5 build_mx8qx_b0/ss/csi/v1/ss.o
 .debug_abbrev  0x000000000000ac6d      0x38c build_mx8qx_b0/ss/db/v2/ss.o
 .debug_abbrev  0x000000000000aff9      0x34e build_mx8qx_b0/ss/dc/v1/ss.o
 .debug_abbrev  0x000000000000b347      0x316 build_mx8qx_b0/ss/drc/v2/ss.o
 .debug_abbrev  0x000000000000b65d      0x37e build_mx8qx_b0/ss/gpu/v2/ss.o
 .debug_abbrev  0x000000000000b9db      0x34b build_mx8qx_b0/ss/hsio/v2/ss.o
 .debug_abbrev  0x000000000000bd26      0x242 build_mx8qx_b0/ss/img/v1/ss.o
 .debug_abbrev  0x000000000000bf68      0x4a7 build_mx8qx_b0/ss/m4/v1/ss.o
 .debug_abbrev  0x000000000000c40f      0x2fe build_mx8qx_b0/ss/mipi/v2/ss.o
 .debug_abbrev  0x000000000000c70d      0x242 build_mx8qx_b0/ss/pi/v1/ss.o
 .debug_abbrev  0x000000000000c94f      0x551 build_mx8qx_b0/board/mx8qx_mek/board.o
 .debug_abbrev  0x000000000000cea0      0x312 build_mx8qx_b0/board/board_common.o
 .debug_abbrev  0x000000000000d1b2       0x14 build_mx8qx_b0/board/board.o
 .debug_abbrev  0x000000000000d1c6      0x38f build_mx8qx_b0/board/pmic.o
 .debug_abbrev  0x000000000000d555      0x2a8 build_mx8qx_b0/svc/irq/svc.o
 .debug_abbrev  0x000000000000d7fd      0x3ad build_mx8qx_b0/svc/misc/svc.o
 .debug_abbrev  0x000000000000dbaa      0x438 build_mx8qx_b0/svc/pad/svc.o
 .debug_abbrev  0x000000000000dfe2      0x451 build_mx8qx_b0/svc/pm/svc.o
 .debug_abbrev  0x000000000000e433      0x4e1 build_mx8qx_b0/svc/rm/svc.o
 .debug_abbrev  0x000000000000e914      0x40a build_mx8qx_b0/svc/timer/svc.o
 .debug_abbrev  0x000000000000ed1e      0x301 build_mx8qx_b0/svc/irq/rpc_srv.o
 .debug_abbrev  0x000000000000f01f      0x34c build_mx8qx_b0/svc/misc/rpc_srv.o
 .debug_abbrev  0x000000000000f36b      0x34c build_mx8qx_b0/svc/pad/rpc_srv.o
 .debug_abbrev  0x000000000000f6b7      0x32e build_mx8qx_b0/svc/pm/rpc_srv.o
 .debug_abbrev  0x000000000000f9e5      0x366 build_mx8qx_b0/svc/rm/rpc_srv.o
 .debug_abbrev  0x000000000000fd4b      0x32e build_mx8qx_b0/svc/timer/rpc_srv.o

.debug_loc      0x0000000000000000    0x2f396
 .debug_loc     0x0000000000000000       0x1e build_mx8qx_b0/devices/startup.o
 .debug_loc     0x000000000000001e      0x51c build_mx8qx_b0/devices/MX8QX/system_MX8QX.o
 .debug_loc     0x000000000000053a      0x6bb build_mx8qx_b0/devices/MX8QX/handlers_MX8QX.o
 .debug_loc     0x0000000000000bf5      0x64f build_mx8qx_b0/main/main.o
 .debug_loc     0x0000000000001244      0x5df build_mx8qx_b0/main/main_common.o
 .debug_loc     0x0000000000001823      0x893 build_mx8qx_b0/main/boot.o
 .debug_loc     0x00000000000020b6       0x3f build_mx8qx_b0/main/rpc.o
 .debug_loc     0x00000000000020f5      0x48b build_mx8qx_b0/main/ipc_srv.o
 .debug_loc     0x0000000000002580     0x1cfa build_mx8qx_b0/main/monitor.o
 .debug_loc     0x000000000000427a      0x4e5 build_mx8qx_b0/utilities/newlib_stubs.o
 .debug_loc     0x000000000000475f     0x1460 build_mx8qx_b0/soc/MX8QX/soc.o
 .debug_loc     0x0000000000005bbf      0xead build_mx8qx_b0/soc/common/soc_common.o
 .debug_loc     0x0000000000006a6c      0x6c1 build_mx8qx_b0/drivers/analog/fsl_analog.o
 .debug_loc     0x000000000000712d      0x2d1 build_mx8qx_b0/drivers/analog/fsl_analog_refgen.o
 .debug_loc     0x00000000000073fe      0x3e8 build_mx8qx_b0/drivers/csr/fsl_csr.o
 .debug_loc     0x00000000000077e6     0x15ce build_mx8qx_b0/drivers/dsc/fsl_dsc.o
 .debug_loc     0x0000000000008db4     0x137b build_mx8qx_b0/drivers/dsc/fsl_dsc_ai.o
 .debug_loc     0x000000000000a12f      0x840 build_mx8qx_b0/drivers/pad/fsl_pad.o
 .debug_loc     0x000000000000a96f       0xe6 build_mx8qx_b0/drivers/sysctr/fsl_sysctr.o
 .debug_loc     0x000000000000aa55     0x2172 build_mx8qx_b0/drivers/xrdc2/fsl_xrdc2.o
 .debug_loc     0x000000000000cbc7       0x3a build_mx8qx_b0/drivers/mtr/fsl_mtr.o
 .debug_loc     0x000000000000cc01     0x118f build_mx8qx_b0/drivers/seco/v2/fsl_seco.o
 .debug_loc     0x000000000000dd90     0x246f build_mx8qx_b0/drivers/lpi2c/fsl_lpi2c.o
 .debug_loc     0x00000000000101ff      0x158 build_mx8qx_b0/drivers/lpit/fsl_lpit.o
 .debug_loc     0x0000000000010357       0xb2 build_mx8qx_b0/drivers/lpcg/fsl_lpcg.o
 .debug_loc     0x0000000000010409     0x10d9 build_mx8qx_b0/drivers/lpuart/fsl_lpuart.o
 .debug_loc     0x00000000000114e2      0x209 build_mx8qx_b0/drivers/mu/fsl_mu.o
 .debug_loc     0x00000000000116eb      0xa3e build_mx8qx_b0/drivers/otp/fsl_otp.o
 .debug_loc     0x0000000000012129       0xc6 build_mx8qx_b0/drivers/stc/fsl_stc.o
 .debug_loc     0x00000000000121ef      0x188 build_mx8qx_b0/drivers/systick/fsl_systick.o
 .debug_loc     0x0000000000012377      0x6bd build_mx8qx_b0/drivers/drc/fsl_drc.o
 .debug_loc     0x0000000000012a34      0x3de build_mx8qx_b0/drivers/snvs/v2/fsl_snvs.o
 .debug_loc     0x0000000000012e12      0x770 build_mx8qx_b0/drivers/pmic/fsl_pmic.o
 .debug_loc     0x0000000000013582      0x834 build_mx8qx_b0/drivers/pmic/pf8100/fsl_pf8100.o
 .debug_loc     0x0000000000013db6      0x9ba build_mx8qx_b0/drivers/pmic/pf100/fsl_pf100.o
 .debug_loc     0x0000000000014770     0x17a5 build_mx8qx_b0/ss/inf/inf.o
 .debug_loc     0x0000000000015f15      0xa4c build_mx8qx_b0/ss/sc/v2/ss.o
 .debug_loc     0x0000000000016961      0xafc build_mx8qx_b0/ss/adma/v2/ss.o
 .debug_loc     0x000000000001745d      0x6a5 build_mx8qx_b0/ss/lsio/v2/ss.o
 .debug_loc     0x0000000000017b02      0xb9d build_mx8qx_b0/ss/a35/v1/ss.o
 .debug_loc     0x000000000001869f     0x5e7c build_mx8qx_b0/ss/base/ss.o
 .debug_loc     0x000000000001e51b      0x6c2 build_mx8qx_b0/ss/conn/v1/ss.o
 .debug_loc     0x000000000001ebdd       0x7b build_mx8qx_b0/ss/csi/v1/ss.o
 .debug_loc     0x000000000001ec58      0x93c build_mx8qx_b0/ss/db/v2/ss.o
 .debug_loc     0x000000000001f594      0x762 build_mx8qx_b0/ss/dc/v1/ss.o
 .debug_loc     0x000000000001fcf6      0x280 build_mx8qx_b0/ss/drc/v2/ss.o
 .debug_loc     0x000000000001ff76      0x430 build_mx8qx_b0/ss/gpu/v2/ss.o
 .debug_loc     0x00000000000203a6      0x71e build_mx8qx_b0/ss/hsio/v2/ss.o
 .debug_loc     0x0000000000020ac4      0xf3d build_mx8qx_b0/ss/m4/v1/ss.o
 .debug_loc     0x0000000000021a01      0x128 build_mx8qx_b0/ss/mipi/v2/ss.o
 .debug_loc     0x0000000000021b29      0xb0d build_mx8qx_b0/board/mx8qx_mek/board.o
 .debug_loc     0x0000000000022636       0x42 build_mx8qx_b0/board/board_common.o
 .debug_loc     0x0000000000022678      0x946 build_mx8qx_b0/board/pmic.o
 .debug_loc     0x0000000000022fbe      0x1b2 build_mx8qx_b0/svc/irq/svc.o
 .debug_loc     0x0000000000023170      0xf0e build_mx8qx_b0/svc/misc/svc.o
 .debug_loc     0x000000000002407e     0x1780 build_mx8qx_b0/svc/pad/svc.o
 .debug_loc     0x00000000000257fe     0x1619 build_mx8qx_b0/svc/pm/svc.o
 .debug_loc     0x0000000000026e17     0x2fe1 build_mx8qx_b0/svc/rm/svc.o
 .debug_loc     0x0000000000029df8      0xef9 build_mx8qx_b0/svc/timer/svc.o
 .debug_loc     0x000000000002acf1      0x1ab build_mx8qx_b0/svc/irq/rpc_srv.o
 .debug_loc     0x000000000002ae9c     0x113e build_mx8qx_b0/svc/misc/rpc_srv.o
 .debug_loc     0x000000000002bfda      0xac4 build_mx8qx_b0/svc/pad/rpc_srv.o
 .debug_loc     0x000000000002ca9e      0xe8f build_mx8qx_b0/svc/pm/rpc_srv.o
 .debug_loc     0x000000000002d92d     0x10c1 build_mx8qx_b0/svc/rm/rpc_srv.o
 .debug_loc     0x000000000002e9ee      0x9a8 build_mx8qx_b0/svc/timer/rpc_srv.o

.debug_aranges  0x0000000000000000     0x23c8
 .debug_aranges
                0x0000000000000000       0x20 build_mx8qx_b0/devices/startup.o
 .debug_aranges
                0x0000000000000020       0x20 build_mx8qx_b0/devices/memops.o
 .debug_aranges
                0x0000000000000040       0x90 build_mx8qx_b0/devices/MX8QX/system_MX8QX.o
 .debug_aranges
                0x00000000000000d0      0x108 build_mx8qx_b0/devices/MX8QX/handlers_MX8QX.o
 .debug_aranges
                0x00000000000001d8       0x28 build_mx8qx_b0/devices/MX8QX/gcc/startup_MX8QX.o
 .debug_aranges
                0x0000000000000200       0x30 build_mx8qx_b0/main/main.o
 .debug_aranges
                0x0000000000000230       0x78 build_mx8qx_b0/main/main_common.o
 .debug_aranges
                0x00000000000002a8       0x70 build_mx8qx_b0/main/boot.o
 .debug_aranges
                0x0000000000000318       0x20 build_mx8qx_b0/main/debug.o
 .debug_aranges
                0x0000000000000338       0x20 build_mx8qx_b0/main/rpc.o
 .debug_aranges
                0x0000000000000358       0x40 build_mx8qx_b0/main/ipc_srv.o
 .debug_aranges
                0x0000000000000398       0x60 build_mx8qx_b0/main/monitor.o
 .debug_aranges
                0x00000000000003f8       0x98 build_mx8qx_b0/utilities/newlib_stubs.o
 .debug_aranges
                0x0000000000000490      0x158 build_mx8qx_b0/soc/MX8QX/soc.o
 .debug_aranges
                0x00000000000005e8      0x128 build_mx8qx_b0/soc/common/soc_common.o
 .debug_aranges
                0x0000000000000710       0x68 build_mx8qx_b0/drivers/analog/fsl_analog.o
 .debug_aranges
                0x0000000000000778       0x50 build_mx8qx_b0/drivers/analog/fsl_analog_refgen.o
 .debug_aranges
                0x00000000000007c8       0x58 build_mx8qx_b0/drivers/csr/fsl_csr.o
 .debug_aranges
                0x0000000000000820      0x100 build_mx8qx_b0/drivers/dsc/fsl_dsc.o
 .debug_aranges
                0x0000000000000920       0xa0 build_mx8qx_b0/drivers/dsc/fsl_dsc_ai.o
 .debug_aranges
                0x00000000000009c0       0xb0 build_mx8qx_b0/drivers/pad/fsl_pad.o
 .debug_aranges
                0x0000000000000a70       0x70 build_mx8qx_b0/drivers/sysctr/fsl_sysctr.o
 .debug_aranges
                0x0000000000000ae0       0xa8 build_mx8qx_b0/drivers/xrdc2/fsl_xrdc2.o
 .debug_aranges
                0x0000000000000b88       0x20 build_mx8qx_b0/drivers/mtr/fsl_mtr.o
 .debug_aranges
                0x0000000000000ba8      0x130 build_mx8qx_b0/drivers/seco/v2/fsl_seco.o
 .debug_aranges
                0x0000000000000cd8      0x130 build_mx8qx_b0/drivers/lpi2c/fsl_lpi2c.o
 .debug_aranges
                0x0000000000000e08       0x38 build_mx8qx_b0/drivers/lpit/fsl_lpit.o
 .debug_aranges
                0x0000000000000e40       0x48 build_mx8qx_b0/drivers/lpcg/fsl_lpcg.o
 .debug_aranges
                0x0000000000000e88      0x108 build_mx8qx_b0/drivers/lpuart/fsl_lpuart.o
 .debug_aranges
                0x0000000000000f90       0x40 build_mx8qx_b0/drivers/mu/fsl_mu.o
 .debug_aranges
                0x0000000000000fd0       0x50 build_mx8qx_b0/drivers/otp/fsl_otp.o
 .debug_aranges
                0x0000000000001020       0x30 build_mx8qx_b0/drivers/stc/fsl_stc.o
 .debug_aranges
                0x0000000000001050       0x50 build_mx8qx_b0/drivers/systick/fsl_systick.o
 .debug_aranges
                0x00000000000010a0       0x30 build_mx8qx_b0/drivers/drc/fsl_drc.o
 .debug_aranges
                0x00000000000010d0       0xc8 build_mx8qx_b0/drivers/snvs/v2/fsl_snvs.o
 .debug_aranges
                0x0000000000001198       0x58 build_mx8qx_b0/drivers/pmic/fsl_pmic.o
 .debug_aranges
                0x00000000000011f0       0x68 build_mx8qx_b0/drivers/pmic/pf8100/fsl_pf8100.o
 .debug_aranges
                0x0000000000001258       0x58 build_mx8qx_b0/drivers/pmic/pf100/fsl_pf100.o
 .debug_aranges
                0x00000000000012b0      0x148 build_mx8qx_b0/ss/inf/inf.o
 .debug_aranges
                0x00000000000013f8       0x88 build_mx8qx_b0/ss/sc/v2/ss.o
 .debug_aranges
                0x0000000000001480       0x90 build_mx8qx_b0/ss/adma/v2/ss.o
 .debug_aranges
                0x0000000000001510       0x18 build_mx8qx_b0/ss/vpu/v4/ss.o
 .debug_aranges
                0x0000000000001528       0x48 build_mx8qx_b0/ss/lsio/v2/ss.o
 .debug_aranges
                0x0000000000001570       0xb8 build_mx8qx_b0/ss/a35/v1/ss.o
 .debug_aranges
                0x0000000000001628      0x248 build_mx8qx_b0/ss/base/ss.o
 .debug_aranges
                0x0000000000001870       0x40 build_mx8qx_b0/ss/conn/v1/ss.o
 .debug_aranges
                0x00000000000018b0       0x20 build_mx8qx_b0/ss/csi/v1/ss.o
 .debug_aranges
                0x00000000000018d0       0x60 build_mx8qx_b0/ss/db/v2/ss.o
 .debug_aranges
                0x0000000000001930       0x40 build_mx8qx_b0/ss/dc/v1/ss.o
 .debug_aranges
                0x0000000000001970       0x40 build_mx8qx_b0/ss/drc/v2/ss.o
 .debug_aranges
                0x00000000000019b0       0x38 build_mx8qx_b0/ss/gpu/v2/ss.o
 .debug_aranges
                0x00000000000019e8       0x38 build_mx8qx_b0/ss/hsio/v2/ss.o
 .debug_aranges
                0x0000000000001a20       0x18 build_mx8qx_b0/ss/img/v1/ss.o
 .debug_aranges
                0x0000000000001a38       0xa8 build_mx8qx_b0/ss/m4/v1/ss.o
 .debug_aranges
                0x0000000000001ae0       0x28 build_mx8qx_b0/ss/mipi/v2/ss.o
 .debug_aranges
                0x0000000000001b08       0x18 build_mx8qx_b0/ss/pi/v1/ss.o
 .debug_aranges
                0x0000000000001b20       0xe0 build_mx8qx_b0/board/mx8qx_mek/board.o
 .debug_aranges
                0x0000000000001c00       0x38 build_mx8qx_b0/board/board_common.o
 .debug_aranges
                0x0000000000001c38       0x20 build_mx8qx_b0/board/board.o
 .debug_aranges
                0x0000000000001c58       0x68 build_mx8qx_b0/board/pmic.o
 .debug_aranges
                0x0000000000001cc0       0x28 build_mx8qx_b0/svc/irq/svc.o
 .debug_aranges
                0x0000000000001ce8      0x138 build_mx8qx_b0/svc/misc/svc.o
 .debug_aranges
                0x0000000000001e20       0xa8 build_mx8qx_b0/svc/pad/svc.o
 .debug_aranges
                0x0000000000001ec8      0x128 build_mx8qx_b0/svc/pm/svc.o
 .debug_aranges
                0x0000000000001ff0      0x220 build_mx8qx_b0/svc/rm/svc.o
 .debug_aranges
                0x0000000000002210       0xf8 build_mx8qx_b0/svc/timer/svc.o
 .debug_aranges
                0x0000000000002308       0x20 build_mx8qx_b0/svc/irq/rpc_srv.o
 .debug_aranges
                0x0000000000002328       0x20 build_mx8qx_b0/svc/misc/rpc_srv.o
 .debug_aranges
                0x0000000000002348       0x20 build_mx8qx_b0/svc/pad/rpc_srv.o
 .debug_aranges
                0x0000000000002368       0x20 build_mx8qx_b0/svc/pm/rpc_srv.o
 .debug_aranges
                0x0000000000002388       0x20 build_mx8qx_b0/svc/rm/rpc_srv.o
 .debug_aranges
                0x00000000000023a8       0x20 build_mx8qx_b0/svc/timer/rpc_srv.o

.debug_ranges   0x0000000000000000     0x3f98
 .debug_ranges  0x0000000000000000       0x10 build_mx8qx_b0/devices/startup.o
 .debug_ranges  0x0000000000000010      0x1b8 build_mx8qx_b0/devices/MX8QX/system_MX8QX.o
 .debug_ranges  0x00000000000001c8      0x268 build_mx8qx_b0/devices/MX8QX/handlers_MX8QX.o
 .debug_ranges  0x0000000000000430       0x20 build_mx8qx_b0/devices/MX8QX/gcc/startup_MX8QX.o
 .debug_ranges  0x0000000000000450       0xf0 build_mx8qx_b0/main/main.o
 .debug_ranges  0x0000000000000540      0x1c0 build_mx8qx_b0/main/main_common.o
 .debug_ranges  0x0000000000000700       0xb0 build_mx8qx_b0/main/boot.o
 .debug_ranges  0x00000000000007b0       0x10 build_mx8qx_b0/main/debug.o
 .debug_ranges  0x00000000000007c0       0x10 build_mx8qx_b0/main/rpc.o
 .debug_ranges  0x00000000000007d0       0xa0 build_mx8qx_b0/main/ipc_srv.o
 .debug_ranges  0x0000000000000870      0x480 build_mx8qx_b0/main/monitor.o
 .debug_ranges  0x0000000000000cf0       0xd8 build_mx8qx_b0/utilities/newlib_stubs.o
 .debug_ranges  0x0000000000000dc8      0x308 build_mx8qx_b0/soc/MX8QX/soc.o
 .debug_ranges  0x00000000000010d0      0x358 build_mx8qx_b0/soc/common/soc_common.o
 .debug_ranges  0x0000000000001428       0x70 build_mx8qx_b0/drivers/analog/fsl_analog.o
 .debug_ranges  0x0000000000001498       0x40 build_mx8qx_b0/drivers/analog/fsl_analog_refgen.o
 .debug_ranges  0x00000000000014d8       0x48 build_mx8qx_b0/drivers/csr/fsl_csr.o
 .debug_ranges  0x0000000000001520      0x130 build_mx8qx_b0/drivers/dsc/fsl_dsc.o
 .debug_ranges  0x0000000000001650       0xc8 build_mx8qx_b0/drivers/dsc/fsl_dsc_ai.o
 .debug_ranges  0x0000000000001718       0xa0 build_mx8qx_b0/drivers/pad/fsl_pad.o
 .debug_ranges  0x00000000000017b8       0x78 build_mx8qx_b0/drivers/sysctr/fsl_sysctr.o
 .debug_ranges  0x0000000000001830      0x108 build_mx8qx_b0/drivers/xrdc2/fsl_xrdc2.o
 .debug_ranges  0x0000000000001938       0x10 build_mx8qx_b0/drivers/mtr/fsl_mtr.o
 .debug_ranges  0x0000000000001948      0x1f8 build_mx8qx_b0/drivers/seco/v2/fsl_seco.o
 .debug_ranges  0x0000000000001b40      0x2e8 build_mx8qx_b0/drivers/lpi2c/fsl_lpi2c.o
 .debug_ranges  0x0000000000001e28       0x40 build_mx8qx_b0/drivers/lpit/fsl_lpit.o
 .debug_ranges  0x0000000000001e68       0x38 build_mx8qx_b0/drivers/lpcg/fsl_lpcg.o
 .debug_ranges  0x0000000000001ea0      0x190 build_mx8qx_b0/drivers/lpuart/fsl_lpuart.o
 .debug_ranges  0x0000000000002030       0x30 build_mx8qx_b0/drivers/mu/fsl_mu.o
 .debug_ranges  0x0000000000002060      0x188 build_mx8qx_b0/drivers/otp/fsl_otp.o
 .debug_ranges  0x00000000000021e8       0x20 build_mx8qx_b0/drivers/stc/fsl_stc.o
 .debug_ranges  0x0000000000002208       0x40 build_mx8qx_b0/drivers/systick/fsl_systick.o
 .debug_ranges  0x0000000000002248       0x38 build_mx8qx_b0/drivers/drc/fsl_drc.o
 .debug_ranges  0x0000000000002280       0xe8 build_mx8qx_b0/drivers/snvs/v2/fsl_snvs.o
 .debug_ranges  0x0000000000002368       0x90 build_mx8qx_b0/drivers/pmic/fsl_pmic.o
 .debug_ranges  0x00000000000023f8       0x58 build_mx8qx_b0/drivers/pmic/pf8100/fsl_pf8100.o
 .debug_ranges  0x0000000000002450       0x48 build_mx8qx_b0/drivers/pmic/pf100/fsl_pf100.o
 .debug_ranges  0x0000000000002498      0x208 build_mx8qx_b0/ss/inf/inf.o
 .debug_ranges  0x00000000000026a0       0xa8 build_mx8qx_b0/ss/sc/v2/ss.o
 .debug_ranges  0x0000000000002748       0x80 build_mx8qx_b0/ss/adma/v2/ss.o
 .debug_ranges  0x00000000000027c8      0x130 build_mx8qx_b0/ss/lsio/v2/ss.o
 .debug_ranges  0x00000000000028f8       0xa8 build_mx8qx_b0/ss/a35/v1/ss.o
 .debug_ranges  0x00000000000029a0      0x5d8 build_mx8qx_b0/ss/base/ss.o
 .debug_ranges  0x0000000000002f78       0x78 build_mx8qx_b0/ss/conn/v1/ss.o
 .debug_ranges  0x0000000000002ff0       0x28 build_mx8qx_b0/ss/csi/v1/ss.o
 .debug_ranges  0x0000000000003018       0xb0 build_mx8qx_b0/ss/db/v2/ss.o
 .debug_ranges  0x00000000000030c8       0x30 build_mx8qx_b0/ss/dc/v1/ss.o
 .debug_ranges  0x00000000000030f8       0x30 build_mx8qx_b0/ss/drc/v2/ss.o
 .debug_ranges  0x0000000000003128       0xb0 build_mx8qx_b0/ss/gpu/v2/ss.o
 .debug_ranges  0x00000000000031d8       0x70 build_mx8qx_b0/ss/hsio/v2/ss.o
 .debug_ranges  0x0000000000003248       0xc8 build_mx8qx_b0/ss/m4/v1/ss.o
 .debug_ranges  0x0000000000003310       0x30 build_mx8qx_b0/ss/mipi/v2/ss.o
 .debug_ranges  0x0000000000003340      0x198 build_mx8qx_b0/board/mx8qx_mek/board.o
 .debug_ranges  0x00000000000034d8       0x28 build_mx8qx_b0/board/board_common.o
 .debug_ranges  0x0000000000003500       0x58 build_mx8qx_b0/board/pmic.o
 .debug_ranges  0x0000000000003558       0x18 build_mx8qx_b0/svc/irq/svc.o
 .debug_ranges  0x0000000000003570      0x140 build_mx8qx_b0/svc/misc/svc.o
 .debug_ranges  0x00000000000036b0       0xd8 build_mx8qx_b0/svc/pad/svc.o
 .debug_ranges  0x0000000000003788      0x168 build_mx8qx_b0/svc/pm/svc.o
 .debug_ranges  0x00000000000038f0      0x380 build_mx8qx_b0/svc/rm/svc.o
 .debug_ranges  0x0000000000003c70      0x108 build_mx8qx_b0/svc/timer/svc.o
 .debug_ranges  0x0000000000003d78       0x28 build_mx8qx_b0/svc/irq/rpc_srv.o
 .debug_ranges  0x0000000000003da0       0x80 build_mx8qx_b0/svc/misc/rpc_srv.o
 .debug_ranges  0x0000000000003e20       0x80 build_mx8qx_b0/svc/pad/rpc_srv.o
 .debug_ranges  0x0000000000003ea0       0x68 build_mx8qx_b0/svc/pm/rpc_srv.o
 .debug_ranges  0x0000000000003f08       0x48 build_mx8qx_b0/svc/rm/rpc_srv.o
 .debug_ranges  0x0000000000003f50       0x48 build_mx8qx_b0/svc/timer/rpc_srv.o

.debug_line     0x0000000000000000    0x35a3c
 .debug_line    0x0000000000000000      0x268 build_mx8qx_b0/devices/startup.o
 .debug_line    0x0000000000000268       0x75 build_mx8qx_b0/devices/memops.o
 .debug_line    0x00000000000002dd     0x1030 build_mx8qx_b0/devices/MX8QX/system_MX8QX.o
 .debug_line    0x000000000000130d     0x14a1 build_mx8qx_b0/devices/MX8QX/handlers_MX8QX.o
 .debug_line    0x00000000000027ae      0x150 build_mx8qx_b0/devices/MX8QX/gcc/startup_MX8QX.o
 .debug_line    0x00000000000028fe      0xc29 build_mx8qx_b0/main/main.o
 .debug_line    0x0000000000003527     0x1496 build_mx8qx_b0/main/main_common.o
 .debug_line    0x00000000000049bd      0xa15 build_mx8qx_b0/main/boot.o
 .debug_line    0x00000000000053d2      0x791 build_mx8qx_b0/main/debug.o
 .debug_line    0x0000000000005b63      0x879 build_mx8qx_b0/main/rpc.o
 .debug_line    0x00000000000063dc      0x927 build_mx8qx_b0/main/ipc_srv.o
 .debug_line    0x0000000000006d03     0x12a2 build_mx8qx_b0/main/monitor.o
 .debug_line    0x0000000000007fa5      0xacd build_mx8qx_b0/utilities/newlib_stubs.o
 .debug_line    0x0000000000008a72     0x19cc build_mx8qx_b0/soc/MX8QX/soc.o
 .debug_line    0x000000000000a43e     0x1526 build_mx8qx_b0/soc/common/soc_common.o
 .debug_line    0x000000000000b964      0x8ba build_mx8qx_b0/drivers/analog/fsl_analog.o
 .debug_line    0x000000000000c21e      0x7a3 build_mx8qx_b0/drivers/analog/fsl_analog_refgen.o
 .debug_line    0x000000000000c9c1      0x819 build_mx8qx_b0/drivers/csr/fsl_csr.o
 .debug_line    0x000000000000d1da      0xbfd build_mx8qx_b0/drivers/dsc/fsl_dsc.o
 .debug_line    0x000000000000ddd7      0xc13 build_mx8qx_b0/drivers/dsc/fsl_dsc_ai.o
 .debug_line    0x000000000000e9ea      0x902 build_mx8qx_b0/drivers/pad/fsl_pad.o
 .debug_line    0x000000000000f2ec      0x86d build_mx8qx_b0/drivers/sysctr/fsl_sysctr.o
 .debug_line    0x000000000000fb59      0xbdd build_mx8qx_b0/drivers/xrdc2/fsl_xrdc2.o
 .debug_line    0x0000000000010736      0x30c build_mx8qx_b0/drivers/mtr/fsl_mtr.o
 .debug_line    0x0000000000010a42      0xe65 build_mx8qx_b0/drivers/seco/v2/fsl_seco.o
 .debug_line    0x00000000000118a7      0xc0d build_mx8qx_b0/drivers/lpi2c/fsl_lpi2c.o
 .debug_line    0x00000000000124b4      0x4a5 build_mx8qx_b0/drivers/lpit/fsl_lpit.o
 .debug_line    0x0000000000012959      0x755 build_mx8qx_b0/drivers/lpcg/fsl_lpcg.o
 .debug_line    0x00000000000130ae      0x9f2 build_mx8qx_b0/drivers/lpuart/fsl_lpuart.o
 .debug_line    0x0000000000013aa0      0x483 build_mx8qx_b0/drivers/mu/fsl_mu.o
 .debug_line    0x0000000000013f23      0x8e2 build_mx8qx_b0/drivers/otp/fsl_otp.o
 .debug_line    0x0000000000014805      0x32c build_mx8qx_b0/drivers/stc/fsl_stc.o
 .debug_line    0x0000000000014b31      0x780 build_mx8qx_b0/drivers/systick/fsl_systick.o
 .debug_line    0x00000000000152b1      0xa69 build_mx8qx_b0/drivers/drc/fsl_drc.o
 .debug_line    0x0000000000015d1a      0xa4b build_mx8qx_b0/drivers/snvs/v2/fsl_snvs.o
 .debug_line    0x0000000000016765      0xa46 build_mx8qx_b0/drivers/pmic/fsl_pmic.o
 .debug_line    0x00000000000171ab      0xa8d build_mx8qx_b0/drivers/pmic/pf8100/fsl_pf8100.o
 .debug_line    0x0000000000017c38      0xa67 build_mx8qx_b0/drivers/pmic/pf100/fsl_pf100.o
 .debug_line    0x000000000001869f     0x133f build_mx8qx_b0/ss/inf/inf.o
 .debug_line    0x00000000000199de     0x1193 build_mx8qx_b0/ss/sc/v2/ss.o
 .debug_line    0x000000000001ab71     0x1102 build_mx8qx_b0/ss/adma/v2/ss.o
 .debug_line    0x000000000001bc73      0xe2a build_mx8qx_b0/ss/vpu/v4/ss.o
 .debug_line    0x000000000001ca9d     0x10da build_mx8qx_b0/ss/lsio/v2/ss.o
 .debug_line    0x000000000001db77     0x110c build_mx8qx_b0/ss/a35/v1/ss.o
 .debug_line    0x000000000001ec83     0x2103 build_mx8qx_b0/ss/base/ss.o
 .debug_line    0x0000000000020d86      0xf97 build_mx8qx_b0/ss/conn/v1/ss.o
 .debug_line    0x0000000000021d1d      0xecd build_mx8qx_b0/ss/csi/v1/ss.o
 .debug_line    0x0000000000022bea     0x1090 build_mx8qx_b0/ss/db/v2/ss.o
 .debug_line    0x0000000000023c7a      0xf61 build_mx8qx_b0/ss/dc/v1/ss.o
 .debug_line    0x0000000000024bdb      0xea0 build_mx8qx_b0/ss/drc/v2/ss.o
 .debug_line    0x0000000000025a7b      0xf2c build_mx8qx_b0/ss/gpu/v2/ss.o
 .debug_line    0x00000000000269a7      0xf1d build_mx8qx_b0/ss/hsio/v2/ss.o
 .debug_line    0x00000000000278c4      0xe2a build_mx8qx_b0/ss/img/v1/ss.o
 .debug_line    0x00000000000286ee     0x1249 build_mx8qx_b0/ss/m4/v1/ss.o
 .debug_line    0x0000000000029937      0xeed build_mx8qx_b0/ss/mipi/v2/ss.o
 .debug_line    0x000000000002a824      0xe29 build_mx8qx_b0/ss/pi/v1/ss.o
 .debug_line    0x000000000002b64d     0x1271 build_mx8qx_b0/board/mx8qx_mek/board.o
 .debug_line    0x000000000002c8be      0x8a7 build_mx8qx_b0/board/board_common.o
 .debug_line    0x000000000002d165       0x49 build_mx8qx_b0/board/board.o
 .debug_line    0x000000000002d1ae      0xb8d build_mx8qx_b0/board/pmic.o
 .debug_line    0x000000000002dd3b      0x72a build_mx8qx_b0/svc/irq/svc.o
 .debug_line    0x000000000002e465      0xcfb build_mx8qx_b0/svc/misc/svc.o
 .debug_line    0x000000000002f160      0xb66 build_mx8qx_b0/svc/pad/svc.o
 .debug_line    0x000000000002fcc6      0xccc build_mx8qx_b0/svc/pm/svc.o
 .debug_line    0x0000000000030992     0x14b8 build_mx8qx_b0/svc/rm/svc.o
 .debug_line    0x0000000000031e4a      0xd7d build_mx8qx_b0/svc/timer/svc.o
 .debug_line    0x0000000000032bc7      0x71e build_mx8qx_b0/svc/irq/rpc_srv.o
 .debug_line    0x00000000000332e5      0x834 build_mx8qx_b0/svc/misc/rpc_srv.o
 .debug_line    0x0000000000033b19      0x80e build_mx8qx_b0/svc/pad/rpc_srv.o
 .debug_line    0x0000000000034327      0x786 build_mx8qx_b0/svc/pm/rpc_srv.o
 .debug_line    0x0000000000034aad      0x7b2 build_mx8qx_b0/svc/rm/rpc_srv.o
 .debug_line    0x000000000003525f      0x7dd build_mx8qx_b0/svc/timer/rpc_srv.o

.debug_str      0x0000000000000000     0xce38
 .debug_str     0x0000000000000000      0x6d8 build_mx8qx_b0/devices/startup.o
                                        0x796 (size before relaxing)
 .debug_str     0x00000000000006d8     0x20c2 build_mx8qx_b0/devices/MX8QX/system_MX8QX.o
                                       0x289f (size before relaxing)
 .debug_str     0x000000000000279a      0xcda build_mx8qx_b0/devices/MX8QX/handlers_MX8QX.o
                                       0x2da3 (size before relaxing)
 .debug_str     0x0000000000003474      0x357 build_mx8qx_b0/main/main.o
                                       0x1ad0 (size before relaxing)
 .debug_str     0x00000000000037cb      0x5da build_mx8qx_b0/main/main_common.o
                                       0x267f (size before relaxing)
 .debug_str     0x0000000000003da5      0x377 build_mx8qx_b0/main/boot.o
                                       0x1b63 (size before relaxing)
 .debug_str     0x000000000000411c       0x3d build_mx8qx_b0/main/debug.o
                                       0x138c (size before relaxing)
 .debug_str     0x0000000000004159       0xa9 build_mx8qx_b0/main/rpc.o
                                       0x1429 (size before relaxing)
 .debug_str     0x0000000000004202      0x401 build_mx8qx_b0/main/ipc_srv.o
                                       0x17a1 (size before relaxing)
 .debug_str     0x0000000000004603      0x73e build_mx8qx_b0/main/monitor.o
                                       0x2324 (size before relaxing)
 .debug_str     0x0000000000004d41      0x175 build_mx8qx_b0/utilities/newlib_stubs.o
                                       0x1a17 (size before relaxing)
 .debug_str     0x0000000000004eb6      0xa12 build_mx8qx_b0/soc/MX8QX/soc.o
                                       0x2c14 (size before relaxing)
 .debug_str     0x00000000000058c8      0x8b9 build_mx8qx_b0/soc/common/soc_common.o
                                       0x29f1 (size before relaxing)
 .debug_str     0x0000000000006181      0x14a build_mx8qx_b0/drivers/analog/fsl_analog.o
                                       0x1c0d (size before relaxing)
 .debug_str     0x00000000000062cb       0x4b build_mx8qx_b0/drivers/analog/fsl_analog_refgen.o
                                       0x16ee (size before relaxing)
 .debug_str     0x0000000000006316       0xe6 build_mx8qx_b0/drivers/csr/fsl_csr.o
                                       0x17af (size before relaxing)
 .debug_str     0x00000000000063fc      0x27e build_mx8qx_b0/drivers/dsc/fsl_dsc.o
                                       0x1cc4 (size before relaxing)
 .debug_str     0x000000000000667a      0x167 build_mx8qx_b0/drivers/dsc/fsl_dsc_ai.o
                                       0x1c64 (size before relaxing)
 .debug_str     0x00000000000067e1      0x15e build_mx8qx_b0/drivers/pad/fsl_pad.o
                                       0x166b (size before relaxing)
 .debug_str     0x000000000000693f       0xd9 build_mx8qx_b0/drivers/sysctr/fsl_sysctr.o
                                       0x1574 (size before relaxing)
 .debug_str     0x0000000000006a18      0x2bc build_mx8qx_b0/drivers/xrdc2/fsl_xrdc2.o
                                       0x1cfd (size before relaxing)
 .debug_str     0x0000000000006cd4       0x5e build_mx8qx_b0/drivers/mtr/fsl_mtr.o
                                        0x68e (size before relaxing)
 .debug_str     0x0000000000006d32      0xb65 build_mx8qx_b0/drivers/seco/v2/fsl_seco.o
                                       0x2534 (size before relaxing)
 .debug_str     0x0000000000007897     0x16aa build_mx8qx_b0/drivers/lpi2c/fsl_lpi2c.o
                                       0x226a (size before relaxing)
 .debug_str     0x0000000000008f41       0x4e build_mx8qx_b0/drivers/lpit/fsl_lpit.o
                                        0xc11 (size before relaxing)
 .debug_str     0x0000000000008f8f       0x90 build_mx8qx_b0/drivers/lpcg/fsl_lpcg.o
                                       0x13d2 (size before relaxing)
 .debug_str     0x000000000000901f      0x8f5 build_mx8qx_b0/drivers/lpuart/fsl_lpuart.o
                                       0x18fa (size before relaxing)
 .debug_str     0x0000000000009914       0xb4 build_mx8qx_b0/drivers/mu/fsl_mu.o
                                        0x8ba (size before relaxing)
 .debug_str     0x00000000000099c8       0xdf build_mx8qx_b0/drivers/otp/fsl_otp.o
                                       0x1560 (size before relaxing)
 .debug_str     0x0000000000009aa7       0x48 build_mx8qx_b0/drivers/stc/fsl_stc.o
                                        0x8f5 (size before relaxing)
 .debug_str     0x0000000000009aef       0xb3 build_mx8qx_b0/drivers/systick/fsl_systick.o
                                       0x1435 (size before relaxing)
 .debug_str     0x0000000000009ba2      0x141 build_mx8qx_b0/drivers/drc/fsl_drc.o
                                       0x1cfb (size before relaxing)
 .debug_str     0x0000000000009ce3      0x220 build_mx8qx_b0/drivers/snvs/v2/fsl_snvs.o
                                       0x1a07 (size before relaxing)
 .debug_str     0x0000000000009f03      0x226 build_mx8qx_b0/drivers/pmic/fsl_pmic.o
                                       0x18a5 (size before relaxing)
 .debug_str     0x000000000000a129      0x1ae build_mx8qx_b0/drivers/pmic/pf8100/fsl_pf8100.o
                                       0x190d (size before relaxing)
 .debug_str     0x000000000000a2d7      0x11f build_mx8qx_b0/drivers/pmic/pf100/fsl_pf100.o
                                       0x18e3 (size before relaxing)
 .debug_str     0x000000000000a3f6       0xdd build_mx8qx_b0/ss/inf/inf.o
                                       0x1c61 (size before relaxing)
 .debug_str     0x000000000000a4d3      0x205 build_mx8qx_b0/ss/sc/v2/ss.o
                                       0x236d (size before relaxing)
 .debug_str     0x000000000000a6d8      0x300 build_mx8qx_b0/ss/adma/v2/ss.o
                                       0x1f15 (size before relaxing)
 .debug_str     0x000000000000a9d8       0x18 build_mx8qx_b0/ss/vpu/v4/ss.o
                                       0x1871 (size before relaxing)
 .debug_str     0x000000000000a9f0       0xa8 build_mx8qx_b0/ss/lsio/v2/ss.o
                                       0x2391 (size before relaxing)
 .debug_str     0x000000000000aa98      0x250 build_mx8qx_b0/ss/a35/v1/ss.o
                                       0x22f2 (size before relaxing)
 .debug_str     0x000000000000ace8      0x7ab build_mx8qx_b0/ss/base/ss.o
                                       0x2f24 (size before relaxing)
 .debug_str     0x000000000000b493       0xb5 build_mx8qx_b0/ss/conn/v1/ss.o
                                       0x1e12 (size before relaxing)
 .debug_str     0x000000000000b548       0x24 build_mx8qx_b0/ss/csi/v1/ss.o
                                       0x1c8e (size before relaxing)
 .debug_str     0x000000000000b56c       0xc8 build_mx8qx_b0/ss/db/v2/ss.o
                                       0x1d41 (size before relaxing)
 .debug_str     0x000000000000b634       0x8c build_mx8qx_b0/ss/dc/v1/ss.o
                                       0x1d7e (size before relaxing)
 .debug_str     0x000000000000b6c0       0x54 build_mx8qx_b0/ss/drc/v2/ss.o
                                       0x1993 (size before relaxing)
 .debug_str     0x000000000000b714       0x6a build_mx8qx_b0/ss/gpu/v2/ss.o
                                       0x1c96 (size before relaxing)
 .debug_str     0x000000000000b77e       0xa7 build_mx8qx_b0/ss/hsio/v2/ss.o
                                       0x1aa5 (size before relaxing)
 .debug_str     0x000000000000b825       0x18 build_mx8qx_b0/ss/img/v1/ss.o
                                       0x1871 (size before relaxing)
 .debug_str     0x000000000000b83d      0x264 build_mx8qx_b0/ss/m4/v1/ss.o
                                       0x27ce (size before relaxing)
 .debug_str     0x000000000000baa1       0x3b build_mx8qx_b0/ss/mipi/v2/ss.o
                                       0x1c9c (size before relaxing)
 .debug_str     0x000000000000badc       0x17 build_mx8qx_b0/ss/pi/v1/ss.o
                                       0x1866 (size before relaxing)
 .debug_str     0x000000000000baf3      0x28b build_mx8qx_b0/board/mx8qx_mek/board.o
                                       0x2cfa (size before relaxing)
 .debug_str     0x000000000000bd7e       0x3b build_mx8qx_b0/board/board_common.o
                                       0x17f8 (size before relaxing)
 .debug_str     0x000000000000bdb9       0x25 build_mx8qx_b0/board/board.o
                                         0x83 (size before relaxing)
 .debug_str     0x000000000000bdde       0xda build_mx8qx_b0/board/pmic.o
                                       0x19c0 (size before relaxing)
 .debug_str     0x000000000000beb8       0x31 build_mx8qx_b0/svc/irq/svc.o
                                       0x13dd (size before relaxing)
 .debug_str     0x000000000000bee9      0x30e build_mx8qx_b0/svc/misc/svc.o
                                       0x217d (size before relaxing)
 .debug_str     0x000000000000c1f7      0x1f6 build_mx8qx_b0/svc/pad/svc.o
                                       0x1c7c (size before relaxing)
 .debug_str     0x000000000000c3ed      0x2d1 build_mx8qx_b0/svc/pm/svc.o
                                       0x1fe1 (size before relaxing)
 .debug_str     0x000000000000c6be      0x3f3 build_mx8qx_b0/svc/rm/svc.o
                                       0x211d (size before relaxing)
 .debug_str     0x000000000000cab1      0x2d4 build_mx8qx_b0/svc/timer/svc.o
                                       0x1b88 (size before relaxing)
 .debug_str     0x000000000000cd85       0x1b build_mx8qx_b0/svc/irq/rpc_srv.o
                                       0x13f0 (size before relaxing)
 .debug_str     0x000000000000cda0       0x1c build_mx8qx_b0/svc/misc/rpc_srv.o
                                       0x16f5 (size before relaxing)
 .debug_str     0x000000000000cdbc       0x1b build_mx8qx_b0/svc/pad/rpc_srv.o
                                       0x1505 (size before relaxing)
 .debug_str     0x000000000000cdd7       0x1a build_mx8qx_b0/svc/pm/rpc_srv.o
                                       0x15ee (size before relaxing)
 .debug_str     0x000000000000cdf1       0x2a build_mx8qx_b0/svc/rm/rpc_srv.o
                                       0x16bf (size before relaxing)
 .debug_str     0x000000000000ce1b       0x1d build_mx8qx_b0/svc/timer/rpc_srv.o
                                       0x15a6 (size before relaxing)

.comment        0x0000000000000000       0xfe
 .comment       0x0000000000000000       0x7f build_mx8qx_b0/devices/startup.o
                                         0x80 (size before relaxing)
 .comment       0x000000000000007f       0x80 build_mx8qx_b0/devices/MX8QX/system_MX8QX.o
 .comment       0x000000000000007f       0x80 build_mx8qx_b0/devices/MX8QX/handlers_MX8QX.o
 .comment       0x000000000000007f       0x80 build_mx8qx_b0/main/main.o
 .comment       0x000000000000007f       0x80 build_mx8qx_b0/main/main_common.o
 .comment       0x000000000000007f       0x80 build_mx8qx_b0/main/boot.o
 .comment       0x000000000000007f       0x80 build_mx8qx_b0/main/debug.o
 .comment       0x000000000000007f       0x80 build_mx8qx_b0/main/rpc.o
 .comment       0x000000000000007f       0x80 build_mx8qx_b0/main/ipc_srv.o
 .comment       0x000000000000007f       0x80 build_mx8qx_b0/main/monitor.o
 .comment       0x000000000000007f       0x80 build_mx8qx_b0/utilities/newlib_stubs.o
 .comment       0x000000000000007f       0x80 build_mx8qx_b0/soc/MX8QX/soc.o
 .comment       0x000000000000007f       0x80 build_mx8qx_b0/soc/common/soc_common.o
 .comment       0x000000000000007f       0x80 build_mx8qx_b0/drivers/analog/fsl_analog.o
 .comment       0x000000000000007f       0x80 build_mx8qx_b0/drivers/analog/fsl_analog_refgen.o
 .comment       0x000000000000007f       0x80 build_mx8qx_b0/drivers/csr/fsl_csr.o
 .comment       0x000000000000007f       0x80 build_mx8qx_b0/drivers/dsc/fsl_dsc.o
 .comment       0x000000000000007f       0x80 build_mx8qx_b0/drivers/dsc/fsl_dsc_ai.o
 .comment       0x000000000000007f       0x80 build_mx8qx_b0/drivers/pad/fsl_pad.o
 .comment       0x000000000000007f       0x80 build_mx8qx_b0/drivers/sysctr/fsl_sysctr.o
 .comment       0x000000000000007f       0x80 build_mx8qx_b0/drivers/xrdc2/fsl_xrdc2.o
 .comment       0x000000000000007f       0x80 build_mx8qx_b0/drivers/mtr/fsl_mtr.o
 .comment       0x000000000000007f       0x80 build_mx8qx_b0/drivers/seco/v2/fsl_seco.o
 .comment       0x000000000000007f       0x80 build_mx8qx_b0/drivers/lpi2c/fsl_lpi2c.o
 .comment       0x000000000000007f       0x80 build_mx8qx_b0/drivers/lpit/fsl_lpit.o
 .comment       0x000000000000007f       0x80 build_mx8qx_b0/drivers/lpcg/fsl_lpcg.o
 .comment       0x000000000000007f       0x80 build_mx8qx_b0/drivers/lpuart/fsl_lpuart.o
 .comment       0x000000000000007f       0x80 build_mx8qx_b0/drivers/mu/fsl_mu.o
 .comment       0x000000000000007f       0x80 build_mx8qx_b0/drivers/otp/fsl_otp.o
 .comment       0x000000000000007f       0x80 build_mx8qx_b0/drivers/stc/fsl_stc.o
 .comment       0x000000000000007f       0x80 build_mx8qx_b0/drivers/systick/fsl_systick.o
 .comment       0x000000000000007f       0x80 build_mx8qx_b0/drivers/drc/fsl_drc.o
 .comment       0x000000000000007f       0x80 build_mx8qx_b0/drivers/snvs/v2/fsl_snvs.o
 .comment       0x000000000000007f       0x7f build_mx8qx_b0/drivers/pmic/fsl_pmic.o
                                         0x80 (size before relaxing)
 .comment       0x00000000000000fe       0x80 build_mx8qx_b0/drivers/pmic/pf8100/fsl_pf8100.o
 .comment       0x00000000000000fe       0x80 build_mx8qx_b0/drivers/pmic/pf100/fsl_pf100.o
 .comment       0x00000000000000fe       0x80 build_mx8qx_b0/ss/inf/inf.o
 .comment       0x00000000000000fe       0x80 build_mx8qx_b0/ss/sc/v2/ss.o
 .comment       0x00000000000000fe       0x80 build_mx8qx_b0/ss/adma/v2/ss.o
 .comment       0x00000000000000fe       0x80 build_mx8qx_b0/ss/vpu/v4/ss.o
 .comment       0x00000000000000fe       0x80 build_mx8qx_b0/ss/lsio/v2/ss.o
 .comment       0x00000000000000fe       0x80 build_mx8qx_b0/ss/a35/v1/ss.o
 .comment       0x00000000000000fe       0x80 build_mx8qx_b0/ss/base/ss.o
 .comment       0x00000000000000fe       0x80 build_mx8qx_b0/ss/conn/v1/ss.o
 .comment       0x00000000000000fe       0x80 build_mx8qx_b0/ss/csi/v1/ss.o
 .comment       0x00000000000000fe       0x80 build_mx8qx_b0/ss/db/v2/ss.o
 .comment       0x00000000000000fe       0x80 build_mx8qx_b0/ss/dc/v1/ss.o
 .comment       0x00000000000000fe       0x80 build_mx8qx_b0/ss/drc/v2/ss.o
 .comment       0x00000000000000fe       0x80 build_mx8qx_b0/ss/gpu/v2/ss.o
 .comment       0x00000000000000fe       0x80 build_mx8qx_b0/ss/hsio/v2/ss.o
 .comment       0x00000000000000fe       0x80 build_mx8qx_b0/ss/img/v1/ss.o
 .comment       0x00000000000000fe       0x80 build_mx8qx_b0/ss/m4/v1/ss.o
 .comment       0x00000000000000fe       0x80 build_mx8qx_b0/ss/mipi/v2/ss.o
 .comment       0x00000000000000fe       0x80 build_mx8qx_b0/ss/pi/v1/ss.o
 .comment       0x00000000000000fe       0x80 build_mx8qx_b0/board/mx8qx_mek/board.o
 .comment       0x00000000000000fe       0x80 build_mx8qx_b0/board/board_common.o
 .comment       0x00000000000000fe       0x80 build_mx8qx_b0/board/pmic.o
 .comment       0x00000000000000fe       0x80 build_mx8qx_b0/svc/irq/svc.o
 .comment       0x00000000000000fe       0x80 build_mx8qx_b0/svc/misc/svc.o
 .comment       0x00000000000000fe       0x80 build_mx8qx_b0/svc/pad/svc.o
 .comment       0x00000000000000fe       0x80 build_mx8qx_b0/svc/pm/svc.o
 .comment       0x00000000000000fe       0x80 build_mx8qx_b0/svc/rm/svc.o
 .comment       0x00000000000000fe       0x80 build_mx8qx_b0/svc/timer/svc.o
 .comment       0x00000000000000fe       0x80 build_mx8qx_b0/svc/irq/rpc_srv.o
 .comment       0x00000000000000fe       0x80 build_mx8qx_b0/svc/misc/rpc_srv.o
 .comment       0x00000000000000fe       0x80 build_mx8qx_b0/svc/pad/rpc_srv.o
 .comment       0x00000000000000fe       0x80 build_mx8qx_b0/svc/pm/rpc_srv.o
 .comment       0x00000000000000fe       0x80 build_mx8qx_b0/svc/rm/rpc_srv.o
 .comment       0x00000000000000fe       0x80 build_mx8qx_b0/svc/timer/rpc_srv.o

.debug_frame    0x0000000000000000     0x7b3c
 .debug_frame   0x0000000000000000       0x30 build_mx8qx_b0/devices/startup.o
 .debug_frame   0x0000000000000030      0x18c build_mx8qx_b0/devices/MX8QX/system_MX8QX.o
 .debug_frame   0x00000000000001bc      0x268 build_mx8qx_b0/devices/MX8QX/handlers_MX8QX.o
 .debug_frame   0x0000000000000424       0x90 build_mx8qx_b0/main/main.o
 .debug_frame   0x00000000000004b4      0x190 build_mx8qx_b0/main/main_common.o
 .debug_frame   0x0000000000000644      0x134 build_mx8qx_b0/main/boot.o
 .debug_frame   0x0000000000000778       0x44 build_mx8qx_b0/main/debug.o
 .debug_frame   0x00000000000007bc       0x30 build_mx8qx_b0/main/rpc.o
 .debug_frame   0x00000000000007ec       0x8c build_mx8qx_b0/main/ipc_srv.o
 .debug_frame   0x0000000000000878      0x11c build_mx8qx_b0/main/monitor.o
 .debug_frame   0x0000000000000994      0x15c build_mx8qx_b0/utilities/newlib_stubs.o
 .debug_frame   0x0000000000000af0      0x448 build_mx8qx_b0/soc/MX8QX/soc.o
 .debug_frame   0x0000000000000f38      0x3f8 build_mx8qx_b0/soc/common/soc_common.o
 .debug_frame   0x0000000000001330      0x128 build_mx8qx_b0/drivers/analog/fsl_analog.o
 .debug_frame   0x0000000000001458       0xcc build_mx8qx_b0/drivers/analog/fsl_analog_refgen.o
 .debug_frame   0x0000000000001524       0xb0 build_mx8qx_b0/drivers/csr/fsl_csr.o
 .debug_frame   0x00000000000015d4      0x2a0 build_mx8qx_b0/drivers/dsc/fsl_dsc.o
 .debug_frame   0x0000000000001874      0x204 build_mx8qx_b0/drivers/dsc/fsl_dsc_ai.o
 .debug_frame   0x0000000000001a78      0x1a8 build_mx8qx_b0/drivers/pad/fsl_pad.o
 .debug_frame   0x0000000000001c20       0xe8 build_mx8qx_b0/drivers/sysctr/fsl_sysctr.o
 .debug_frame   0x0000000000001d08      0x290 build_mx8qx_b0/drivers/xrdc2/fsl_xrdc2.o
 .debug_frame   0x0000000000001f98       0x20 build_mx8qx_b0/drivers/mtr/fsl_mtr.o
 .debug_frame   0x0000000000001fb8      0x3f4 build_mx8qx_b0/drivers/seco/v2/fsl_seco.o
 .debug_frame   0x00000000000023ac      0x3d4 build_mx8qx_b0/drivers/lpi2c/fsl_lpi2c.o
 .debug_frame   0x0000000000002780       0x6c build_mx8qx_b0/drivers/lpit/fsl_lpit.o
 .debug_frame   0x00000000000027ec       0x78 build_mx8qx_b0/drivers/lpcg/fsl_lpcg.o
 .debug_frame   0x0000000000002864      0x2d8 build_mx8qx_b0/drivers/lpuart/fsl_lpuart.o
 .debug_frame   0x0000000000002b3c       0x70 build_mx8qx_b0/drivers/mu/fsl_mu.o
 .debug_frame   0x0000000000002bac       0xb8 build_mx8qx_b0/drivers/otp/fsl_otp.o
 .debug_frame   0x0000000000002c64       0x40 build_mx8qx_b0/drivers/stc/fsl_stc.o
 .debug_frame   0x0000000000002ca4       0xc4 build_mx8qx_b0/drivers/systick/fsl_systick.o
 .debug_frame   0x0000000000002d68       0x8c build_mx8qx_b0/drivers/drc/fsl_drc.o
 .debug_frame   0x0000000000002df4      0x278 build_mx8qx_b0/drivers/snvs/v2/fsl_snvs.o
 .debug_frame   0x000000000000306c       0xe8 build_mx8qx_b0/drivers/pmic/fsl_pmic.o
 .debug_frame   0x0000000000003154      0x160 build_mx8qx_b0/drivers/pmic/pf8100/fsl_pf8100.o
 .debug_frame   0x00000000000032b4      0x114 build_mx8qx_b0/drivers/pmic/pf100/fsl_pf100.o
 .debug_frame   0x00000000000033c8      0x570 build_mx8qx_b0/ss/inf/inf.o
 .debug_frame   0x0000000000003938      0x198 build_mx8qx_b0/ss/sc/v2/ss.o
 .debug_frame   0x0000000000003ad0      0x1b8 build_mx8qx_b0/ss/adma/v2/ss.o
 .debug_frame   0x0000000000003c88       0xc4 build_mx8qx_b0/ss/lsio/v2/ss.o
 .debug_frame   0x0000000000003d4c      0x29c build_mx8qx_b0/ss/a35/v1/ss.o
 .debug_frame   0x0000000000003fe8      0xa00 build_mx8qx_b0/ss/base/ss.o
 .debug_frame   0x00000000000049e8       0xe4 build_mx8qx_b0/ss/conn/v1/ss.o
 .debug_frame   0x0000000000004acc       0x38 build_mx8qx_b0/ss/csi/v1/ss.o
 .debug_frame   0x0000000000004b04      0x154 build_mx8qx_b0/ss/db/v2/ss.o
 .debug_frame   0x0000000000004c58      0x100 build_mx8qx_b0/ss/dc/v1/ss.o
 .debug_frame   0x0000000000004d58       0xac build_mx8qx_b0/ss/drc/v2/ss.o
 .debug_frame   0x0000000000004e04       0xbc build_mx8qx_b0/ss/gpu/v2/ss.o
 .debug_frame   0x0000000000004ec0       0xe0 build_mx8qx_b0/ss/hsio/v2/ss.o
 .debug_frame   0x0000000000004fa0      0x204 build_mx8qx_b0/ss/m4/v1/ss.o
 .debug_frame   0x00000000000051a4       0x64 build_mx8qx_b0/ss/mipi/v2/ss.o
 .debug_frame   0x0000000000005208      0x2b4 build_mx8qx_b0/board/mx8qx_mek/board.o
 .debug_frame   0x00000000000054bc       0x70 build_mx8qx_b0/board/board_common.o
 .debug_frame   0x000000000000552c      0x1cc build_mx8qx_b0/board/pmic.o
 .debug_frame   0x00000000000056f8       0x58 build_mx8qx_b0/svc/irq/svc.o
 .debug_frame   0x0000000000005750      0x3c0 build_mx8qx_b0/svc/misc/svc.o
 .debug_frame   0x0000000000005b10      0x2a0 build_mx8qx_b0/svc/pad/svc.o
 .debug_frame   0x0000000000005db0      0x458 build_mx8qx_b0/svc/pm/svc.o
 .debug_frame   0x0000000000006208      0x808 build_mx8qx_b0/svc/rm/svc.o
 .debug_frame   0x0000000000006a10      0x340 build_mx8qx_b0/svc/timer/svc.o
 .debug_frame   0x0000000000006d50       0x34 build_mx8qx_b0/svc/irq/rpc_srv.o
 .debug_frame   0x0000000000006d84       0x40 build_mx8qx_b0/svc/misc/rpc_srv.o
 .debug_frame   0x0000000000006dc4       0x38 build_mx8qx_b0/svc/pad/rpc_srv.o
 .debug_frame   0x0000000000006dfc       0x38 build_mx8qx_b0/svc/pm/rpc_srv.o
 .debug_frame   0x0000000000006e34       0x40 build_mx8qx_b0/svc/rm/rpc_srv.o
 .debug_frame   0x0000000000006e74       0x38 build_mx8qx_b0/svc/timer/rpc_srv.o
 .debug_frame   0x0000000000006eac       0x40 /home/jalcim/gcc_toolchain/gcc-arm-none-eabi-7-2018-q2-update/bin/../lib/gcc/arm-none-eabi/7.3.1/../../../../arm-none-eabi/lib/thumb/v7e-m/fpv4-sp/softfp/libc_nano.a(lib_a-assert.o)
 .debug_frame   0x0000000000006eec       0x20 /home/jalcim/gcc_toolchain/gcc-arm-none-eabi-7-2018-q2-update/bin/../lib/gcc/arm-none-eabi/7.3.1/../../../../arm-none-eabi/lib/thumb/v7e-m/fpv4-sp/softfp/libc_nano.a(lib_a-errno.o)
 .debug_frame   0x0000000000006f0c       0x28 /home/jalcim/gcc_toolchain/gcc-arm-none-eabi-7-2018-q2-update/bin/../lib/gcc/arm-none-eabi/7.3.1/../../../../arm-none-eabi/lib/thumb/v7e-m/fpv4-sp/softfp/libc_nano.a(lib_a-exit.o)
 .debug_frame   0x0000000000006f34       0x44 /home/jalcim/gcc_toolchain/gcc-arm-none-eabi-7-2018-q2-update/bin/../lib/gcc/arm-none-eabi/7.3.1/../../../../arm-none-eabi/lib/thumb/v7e-m/fpv4-sp/softfp/libc_nano.a(lib_a-fgets.o)
 .debug_frame   0x0000000000006f78      0x11c /home/jalcim/gcc_toolchain/gcc-arm-none-eabi-7-2018-q2-update/bin/../lib/gcc/arm-none-eabi/7.3.1/../../../../arm-none-eabi/lib/thumb/v7e-m/fpv4-sp/softfp/libc_nano.a(lib_a-findfp.o)
 .debug_frame   0x0000000000007094       0x64 /home/jalcim/gcc_toolchain/gcc-arm-none-eabi-7-2018-q2-update/bin/../lib/gcc/arm-none-eabi/7.3.1/../../../../arm-none-eabi/lib/thumb/v7e-m/fpv4-sp/softfp/libc_nano.a(lib_a-fprintf.o)
 .debug_frame   0x00000000000070f8       0x54 /home/jalcim/gcc_toolchain/gcc-arm-none-eabi-7-2018-q2-update/bin/../lib/gcc/arm-none-eabi/7.3.1/../../../../arm-none-eabi/lib/thumb/v7e-m/fpv4-sp/softfp/libc_nano.a(lib_a-fwalk.o)
 .debug_frame   0x000000000000714c       0x2c /home/jalcim/gcc_toolchain/gcc-arm-none-eabi-7-2018-q2-update/bin/../lib/gcc/arm-none-eabi/7.3.1/../../../../arm-none-eabi/lib/thumb/v7e-m/fpv4-sp/softfp/libc_nano.a(lib_a-init.o)
 .debug_frame   0x0000000000007178       0x28 /home/jalcim/gcc_toolchain/gcc-arm-none-eabi-7-2018-q2-update/bin/../lib/gcc/arm-none-eabi/7.3.1/../../../../arm-none-eabi/lib/thumb/v7e-m/fpv4-sp/softfp/libc_nano.a(lib_a-memcpy-stub.o)
 .debug_frame   0x00000000000071a0       0x20 /home/jalcim/gcc_toolchain/gcc-arm-none-eabi-7-2018-q2-update/bin/../lib/gcc/arm-none-eabi/7.3.1/../../../../arm-none-eabi/lib/thumb/v7e-m/fpv4-sp/softfp/libc_nano.a(lib_a-memset.o)
 .debug_frame   0x00000000000071c0       0x2c /home/jalcim/gcc_toolchain/gcc-arm-none-eabi-7-2018-q2-update/bin/../lib/gcc/arm-none-eabi/7.3.1/../../../../arm-none-eabi/lib/thumb/v7e-m/fpv4-sp/softfp/libc_nano.a(lib_a-nano-mallocr.o)
 .debug_frame   0x00000000000071ec       0xac /home/jalcim/gcc_toolchain/gcc-arm-none-eabi-7-2018-q2-update/bin/../lib/gcc/arm-none-eabi/7.3.1/../../../../arm-none-eabi/lib/thumb/v7e-m/fpv4-sp/softfp/libc_nano.a(lib_a-nano-vfprintf.o)
 .debug_frame   0x0000000000007298       0x60 /home/jalcim/gcc_toolchain/gcc-arm-none-eabi-7-2018-q2-update/bin/../lib/gcc/arm-none-eabi/7.3.1/../../../../arm-none-eabi/lib/thumb/v7e-m/fpv4-sp/softfp/libc_nano.a(lib_a-nano-vfprintf_i.o)
 .debug_frame   0x00000000000072f8       0x5c /home/jalcim/gcc_toolchain/gcc-arm-none-eabi-7-2018-q2-update/bin/../lib/gcc/arm-none-eabi/7.3.1/../../../../arm-none-eabi/lib/thumb/v7e-m/fpv4-sp/softfp/libc_nano.a(lib_a-reent.o)
 .debug_frame   0x0000000000007354       0x40 /home/jalcim/gcc_toolchain/gcc-arm-none-eabi-7-2018-q2-update/bin/../lib/gcc/arm-none-eabi/7.3.1/../../../../arm-none-eabi/lib/thumb/v7e-m/fpv4-sp/softfp/libc_nano.a(lib_a-refill.o)
 .debug_frame   0x0000000000007394       0x2c /home/jalcim/gcc_toolchain/gcc-arm-none-eabi-7-2018-q2-update/bin/../lib/gcc/arm-none-eabi/7.3.1/../../../../arm-none-eabi/lib/thumb/v7e-m/fpv4-sp/softfp/libc_nano.a(lib_a-sbrkr.o)
 .debug_frame   0x00000000000073c0       0x38 /home/jalcim/gcc_toolchain/gcc-arm-none-eabi-7-2018-q2-update/bin/../lib/gcc/arm-none-eabi/7.3.1/../../../../arm-none-eabi/lib/thumb/v7e-m/fpv4-sp/softfp/libc_nano.a(lib_a-setvbuf.o)
 .debug_frame   0x00000000000073f8       0x88 /home/jalcim/gcc_toolchain/gcc-arm-none-eabi-7-2018-q2-update/bin/../lib/gcc/arm-none-eabi/7.3.1/../../../../arm-none-eabi/lib/thumb/v7e-m/fpv4-sp/softfp/libc_nano.a(lib_a-stdio.o)
 .debug_frame   0x0000000000007480       0x30 /home/jalcim/gcc_toolchain/gcc-arm-none-eabi-7-2018-q2-update/bin/../lib/gcc/arm-none-eabi/7.3.1/../../../../arm-none-eabi/lib/thumb/v7e-m/fpv4-sp/softfp/libc_nano.a(lib_a-strcasecmp.o)
 .debug_frame   0x00000000000074b0       0x30 /home/jalcim/gcc_toolchain/gcc-arm-none-eabi-7-2018-q2-update/bin/../lib/gcc/arm-none-eabi/7.3.1/../../../../arm-none-eabi/lib/thumb/v7e-m/fpv4-sp/softfp/libc_nano.a(lib_a-strncasecmp.o)
 .debug_frame   0x00000000000074e0       0x84 /home/jalcim/gcc_toolchain/gcc-arm-none-eabi-7-2018-q2-update/bin/../lib/gcc/arm-none-eabi/7.3.1/../../../../arm-none-eabi/lib/thumb/v7e-m/fpv4-sp/softfp/libc_nano.a(lib_a-strtoul.o)
 .debug_frame   0x0000000000007564       0x90 /home/jalcim/gcc_toolchain/gcc-arm-none-eabi-7-2018-q2-update/bin/../lib/gcc/arm-none-eabi/7.3.1/../../../../arm-none-eabi/lib/thumb/v7e-m/fpv4-sp/softfp/libc_nano.a(lib_a-strtoull.o)
 .debug_frame   0x00000000000075f4       0x40 /home/jalcim/gcc_toolchain/gcc-arm-none-eabi-7-2018-q2-update/bin/../lib/gcc/arm-none-eabi/7.3.1/../../../../arm-none-eabi/lib/thumb/v7e-m/fpv4-sp/softfp/libc_nano.a(lib_a-wbuf.o)
 .debug_frame   0x0000000000007634       0x2c /home/jalcim/gcc_toolchain/gcc-arm-none-eabi-7-2018-q2-update/bin/../lib/gcc/arm-none-eabi/7.3.1/../../../../arm-none-eabi/lib/thumb/v7e-m/fpv4-sp/softfp/libc_nano.a(lib_a-writer.o)
 .debug_frame   0x0000000000007660       0x2c /home/jalcim/gcc_toolchain/gcc-arm-none-eabi-7-2018-q2-update/bin/../lib/gcc/arm-none-eabi/7.3.1/../../../../arm-none-eabi/lib/thumb/v7e-m/fpv4-sp/softfp/libc_nano.a(lib_a-wsetup.o)
 .debug_frame   0x000000000000768c       0x28 /home/jalcim/gcc_toolchain/gcc-arm-none-eabi-7-2018-q2-update/bin/../lib/gcc/arm-none-eabi/7.3.1/../../../../arm-none-eabi/lib/thumb/v7e-m/fpv4-sp/softfp/libc_nano.a(lib_a-abort.o)
 .debug_frame   0x00000000000076b4       0x2c /home/jalcim/gcc_toolchain/gcc-arm-none-eabi-7-2018-q2-update/bin/../lib/gcc/arm-none-eabi/7.3.1/../../../../arm-none-eabi/lib/thumb/v7e-m/fpv4-sp/softfp/libc_nano.a(lib_a-closer.o)
 .debug_frame   0x00000000000076e0       0x68 /home/jalcim/gcc_toolchain/gcc-arm-none-eabi-7-2018-q2-update/bin/../lib/gcc/arm-none-eabi/7.3.1/../../../../arm-none-eabi/lib/thumb/v7e-m/fpv4-sp/softfp/libc_nano.a(lib_a-fflush.o)
 .debug_frame   0x0000000000007748       0x68 /home/jalcim/gcc_toolchain/gcc-arm-none-eabi-7-2018-q2-update/bin/../lib/gcc/arm-none-eabi/7.3.1/../../../../arm-none-eabi/lib/thumb/v7e-m/fpv4-sp/softfp/libc_nano.a(lib_a-locale.o)
 .debug_frame   0x00000000000077b0       0x2c /home/jalcim/gcc_toolchain/gcc-arm-none-eabi-7-2018-q2-update/bin/../lib/gcc/arm-none-eabi/7.3.1/../../../../arm-none-eabi/lib/thumb/v7e-m/fpv4-sp/softfp/libc_nano.a(lib_a-lseekr.o)
 .debug_frame   0x00000000000077dc       0x58 /home/jalcim/gcc_toolchain/gcc-arm-none-eabi-7-2018-q2-update/bin/../lib/gcc/arm-none-eabi/7.3.1/../../../../arm-none-eabi/lib/thumb/v7e-m/fpv4-sp/softfp/libc_nano.a(lib_a-makebuf.o)
 .debug_frame   0x0000000000007834       0x30 /home/jalcim/gcc_toolchain/gcc-arm-none-eabi-7-2018-q2-update/bin/../lib/gcc/arm-none-eabi/7.3.1/../../../../arm-none-eabi/lib/thumb/v7e-m/fpv4-sp/softfp/libc_nano.a(lib_a-malloc.o)
 .debug_frame   0x0000000000007864       0x48 /home/jalcim/gcc_toolchain/gcc-arm-none-eabi-7-2018-q2-update/bin/../lib/gcc/arm-none-eabi/7.3.1/../../../../arm-none-eabi/lib/thumb/v7e-m/fpv4-sp/softfp/libc_nano.a(lib_a-mbtowc_r.o)
 .debug_frame   0x00000000000078ac       0x30 /home/jalcim/gcc_toolchain/gcc-arm-none-eabi-7-2018-q2-update/bin/../lib/gcc/arm-none-eabi/7.3.1/../../../../arm-none-eabi/lib/thumb/v7e-m/fpv4-sp/softfp/libc_nano.a(lib_a-mlock.o)
 .debug_frame   0x00000000000078dc       0x38 /home/jalcim/gcc_toolchain/gcc-arm-none-eabi-7-2018-q2-update/bin/../lib/gcc/arm-none-eabi/7.3.1/../../../../arm-none-eabi/lib/thumb/v7e-m/fpv4-sp/softfp/libc_nano.a(lib_a-nano-freer.o)
 .debug_frame   0x0000000000007914       0x2c /home/jalcim/gcc_toolchain/gcc-arm-none-eabi-7-2018-q2-update/bin/../lib/gcc/arm-none-eabi/7.3.1/../../../../arm-none-eabi/lib/thumb/v7e-m/fpv4-sp/softfp/libc_nano.a(lib_a-readr.o)
 .debug_frame   0x0000000000007940       0xcc /home/jalcim/gcc_toolchain/gcc-arm-none-eabi-7-2018-q2-update/bin/../lib/gcc/arm-none-eabi/7.3.1/../../../../arm-none-eabi/lib/thumb/v7e-m/fpv4-sp/softfp/libc_nano.a(lib_a-signal.o)
 .debug_frame   0x0000000000007a0c       0x3c /home/jalcim/gcc_toolchain/gcc-arm-none-eabi-7-2018-q2-update/bin/../lib/gcc/arm-none-eabi/7.3.1/../../../../arm-none-eabi/lib/thumb/v7e-m/fpv4-sp/softfp/libc_nano.a(lib_a-signalr.o)
 .debug_frame   0x0000000000007a48       0x3c /home/jalcim/gcc_toolchain/gcc-arm-none-eabi-7-2018-q2-update/bin/../lib/gcc/arm-none-eabi/7.3.1/../../../../arm-none-eabi/lib/thumb/v7e-m/fpv4-sp/softfp/libc_nano.a(lib_a-wctomb_r.o)
 .debug_frame   0x0000000000007a84       0x2c /home/jalcim/gcc_toolchain/gcc-arm-none-eabi-7-2018-q2-update/bin/../lib/gcc/arm-none-eabi/7.3.1/../../../../arm-none-eabi/lib/thumb/v7e-m/fpv4-sp/softfp/libc_nano.a(lib_a-fstatr.o)
 .debug_frame   0x0000000000007ab0       0x2c /home/jalcim/gcc_toolchain/gcc-arm-none-eabi-7-2018-q2-update/bin/../lib/gcc/arm-none-eabi/7.3.1/../../../../arm-none-eabi/lib/thumb/v7e-m/fpv4-sp/softfp/libc_nano.a(lib_a-isattyr.o)
 .debug_frame   0x0000000000007adc       0x2c /home/jalcim/gcc_toolchain/gcc-arm-none-eabi-7-2018-q2-update/bin/../lib/gcc/arm-none-eabi/7.3.1/thumb/v7e-m/fpv4-sp/softfp/libgcc.a(_aeabi_uldivmod.o)
 .debug_frame   0x0000000000007b08       0x34 /home/jalcim/gcc_toolchain/gcc-arm-none-eabi-7-2018-q2-update/bin/../lib/gcc/arm-none-eabi/7.3.1/thumb/v7e-m/fpv4-sp/softfp/libgcc.a(_udivmoddi4.o)
